(dp0
S'METTS MARK'
p1
(dp2
S'to_messages'
p3
F0.04969520275642724
sS'deferral_payments'
p4
F0.0
sS'expenses'
p5
F0.41221263928170204
sS'poi'
p6
I00
sS'deferred_income'
p7
F1.0
sS'from_poi_to_this_person'
p8
F0.07196969696969698
sS'long_term_incentive'
p9
F0.0
sS'restricted_stock_deferred'
p10
F0.9999999999999999
sS'shared_receipt_with_poi'
p11
F0.12683457148034064
sS'loan_advances'
p12
F0.0
sS'from_messages'
p13
F0.0011841738645862357
sS'other'
p14
F0.00016795806145122134
sS'to_poi_ratio'
p15
F0.034482758620689655
sS'director_fees'
p16
F0.0
sS'bonus'
p17
F0.075
sS'total_stock_value'
p18
F0.011913277759404088
sS'from_this_person_to_poi'
p19
F0.0016420361247947454
sS'from_poi_ratio'
p20
F0.21665480239394658
sS'restricted_stock'
p21
F0.03963379812642099
sS'salary'
p22
F0.329165684296536
sS'bonus_ratio'
p23
F0.45886248102540145
sS'total_payments'
p24
F0.010253274646850635
sS'salary_ratio'
p25
F0.32154136716546483
sS'share_receipt_with_poi_ratio'
p26
F0.866441623022027
sS'exercised_stock_options'
p27
F0.0
ssS'BAXTER JOHN C'
p28
(dp29
g3
F0.13363771966050086
sg4
F0.20160884021913836
sg5
F0.04895896626639798
sg6
I00
sg7
F0.6044799288662835
sg8
F0.12290785764622973
sg9
F0.3082451353957703
sg10
F0.9999999999999999
sg11
F0.21280397105980606
sg12
F0.0
sg13
F0.04157082040083719
sg14
F0.25679272112233825
sg15
F0.06772862709145083
sg16
F0.0
sg17
F0.15
sg18
F0.21631523370824213
sg19
F0.0677053499828159
sg20
F0.14397672711291465
sg21
F0.26709089078800846
sg22
F0.2403600244047737
sg23
F0.0929652010174739
sg24
F0.05440666533584129
sg25
F0.02378441138764144
sg26
F0.5585301249239991
sg27
F0.1944936914644951
ssS'ELLIOTT STEVEN'
p30
(dp31
g3
F0.13363771966050086
sg4
F0.0
sg5
F0.34337720697840124
sg6
I00
sg7
F0.8856492977657142
sg8
F0.12290785764622973
sg9
F0.0
sg10
F0.9999999999999999
sg11
F0.21280397105980606
sg12
F0.0
sg13
F0.04157082040083719
sg14
F0.0012510945025685518
sg15
F0.06772862709145083
sg16
F0.0
sg17
F0.04375
sg18
F0.13599520245111402
sg19
F0.0677053499828159
sg20
F0.14397672711291465
sg21
F0.12115079746267603
sg22
F0.15382656412822224
sg23
F0.06397576029749945
sg24
F0.002044471062239377
sg25
F0.03591449409359458
sg26
F0.5585301249239991
sg27
F0.14237479119832827
ssS'CORDES WILLIAM R'
p32
(dp33
g3
F0.046846011131725415
sg4
F0.0
sg5
F0.0
sg6
I00
sg7
F1.0
sg8
F0.01893939393939394
sg9
F0.0
sg10
F0.9999999999999999
sg11
F0.01014676571842725
sg12
F0.0
sg13
F0.0
sg14
F0.0
sg15
F0.0
sg16
F0.0
sg17
F0.0
sg18
F0.021139958279031854
sg19
F0.0
sg20
F0.06022334855742453
sg21
F0.02617145430598954
sg22
F0.0
sg23
F0.0
sg24
F0.0
sg25
F0.0
sg26
F0.05854836898218962
sg27
F0.018977603138476615
ssS'HANNON KEVIN P'
p34
(dp35
g3
F0.06546514709780014
sg4
F0.0
sg5
F0.1487959154233858
sg6
I01
sg7
F0.11054004895579417
sg8
F0.06060606060606061
sg9
F0.31426134316366705
sg10
F0.9999999999999999
sg11
F0.1871715890559884
sg12
F0.0
sg13
F0.0013931457230426303
sg14
F0.0010955885042938864
sg15
F0.65625
sg16
F0.0
sg17
F0.1875
sg18
F0.1301375452916202
sg19
F0.034482758620689655
sg20
F0.14089382062506364
sg21
F0.05778903152985016
sg22
F0.2189347568251477
sg23
F0.2828309113030188
sg24
F0.002787587649967589
sg25
F0.05272800367457147
sg26
F0.9890972791566082
sg27
F0.1612303216360921
ssS'MORDAUNT KRISTINA M'
p36
(dp37
g3
F0.13363771966050086
sg4
F0.0
sg5
F0.15307545363542183
sg6
I00
sg7
F1.0
sg8
F0.12290785764622973
sg9
F0.0
sg10
F0.9999999999999999
sg11
F0.21280397105980606
sg12
F0.0
sg13
F0.04157082040083719
sg14
F0.0001362004739699272
sg15
F0.06772862709145083
sg16
F0.0
sg17
F0.040625
sg18
F0.00424576804785364
sg19
F0.0677053499828159
sg20
F0.14397672711291465
sg21
F0.014125072637327395
sg22
F0.24035192547545214
sg23
F0.48903160426138387
sg24
F0.006069170107360102
sg25
F0.46194702384795705
sg26
F0.5585301249239991
sg27
F0.0
ssS'MEYER ROCKFORD G'
p38
(dp39
g3
F0.011595547309833023
sg4
F0.28757272066706185
sg5
F0.0
sg6
I00
sg7
F1.0
sg8
F0.0
sg9
F0.0
sg10
F0.9999999999999999
sg11
F0.0036238448994383035
sg12
F0.0
sg13
F0.0011145165784341043
sg14
F0.0
sg15
F0.0
sg16
F0.0
sg17
F0.0
sg18
F0.019463886821763955
sg19
F0.0
sg20
F0.0
sg21
F0.03132323431172601
sg22
F0.0
sg23
F0.0
sg24
F0.017846955333330958
sg25
F0.0
sg26
F0.07779130460793884
sg27
F0.014367167899369006
ssS'MCMAHON JEFFREY'
p40
(dp41
g3
F0.15226610124569306
sg4
F0.0
sg5
F0.599345173826187
sg6
I00
sg7
F1.0
sg8
F0.10984848484848485
sg9
F0.13504439081329195
sg10
F0.9999999999999999
sg11
F0.4033339373074832
sg12
F0.0
sg13
F0.0025076623014767345
sg14
F0.028702777842933923
sg15
F0.5416666666666666
sg16
F0.0
sg17
F0.325
sg18
F0.03385975074199638
sg19
F0.04269293924466338
sg20
F0.11331707096715907
sg21
F0.03785480175920189
sg22
F0.3333591299230242
sg23
F0.5682619025119654
sg24
F0.03958844336430838
sg25
F0.09306332152954903
sg26
F0.9439610911594317
sg27
F0.03214282220671575
ssS'HORTON STANLEY C'
p42
(dp43
g3
F0.15193479989398356
sg4
F0.48729809755422054
sg5
F0.0
sg6
I00
sg7
F1.0
sg8
F0.08333333333333334
sg9
F0.0
sg10
F0.9999999999999999
sg11
F0.19423808660989308
sg12
F0.0
sg13
F0.07390638060741155
sg14
F0.0
sg15
F0.013979496738117428
sg16
F0.0
sg17
F0.0
sg18
F0.14776290927495575
sg19
F0.02463054187192118
sg20
F0.08614757808963333
sg21
F0.13860733056788738
sg22
F0.0
sg23
F0.0
sg24
F0.030242045771566962
sg25
F0.0
sg26
F0.44633547071761254
sg27
F0.15169764609595607
ssS'PIPER GREGORY F'
p44
(dp45
g3
F0.07825337927378742
sg4
F0.17582663112903552
sg5
F0.18821662594038374
sg6
I00
sg7
F0.9904882053518077
sg8
F0.11553030303030304
sg9
F0.0
sg10
F0.8427507880621541
sg11
F0.13408226127921724
sg12
F0.0
sg13
F0.014628030091947618
sg14
F7.509848954543116e-05
sg15
F0.21621621621621623
sg16
F0.0
sg17
F0.049999999999999996
sg18
F0.017924834083953196
sg19
F0.07881773399014778
sg20
F0.22670831471487987
sg21
F0.027744376763263075
sg22
F0.1773584532124853
sg23
F0.1924418014240681
sg24
F0.016778992596093736
sg25
F0.10898891189966117
sg26
F0.5911635591974002
sg27
F0.025628279921407655
ssS'HUMPHREY GENE E'
p46
(dp47
g3
F0.004704479194275113
sg4
F0.4612588474542515
sg5
F0.021830453351284956
sg6
I00
sg7
F1.0
sg8
F0.01893939393939394
sg9
F0.0
sg10
F0.9999999999999999
sg11
F0.02119949266171408
sg12
F0.0
sg13
F0.00034828643076065767
sg14
F0.0
sg15
F1.0
sg16
F0.0
sg17
F0.0
sg18
F0.04648267917635969
sg19
F0.027914614121510674
sg20
F0.3594581117021277
sg21
F0.0
sg22
F0.1176360485143864
sg23
F0.0
sg24
F0.029936560417806166
sg25
F0.03515631302996451
sg26
F0.9272891255582368
sg27
F0.0664592546770177
ssS'UMANOFF ADAM S'
p48
(dp49
g3
F0.0035780545984627613
sg4
F0.0
sg5
F0.23221412553603513
sg6
I00
sg7
F1.0
sg8
F0.022727272727272728
sg9
F0.0
sg10
F0.9999999999999999
sg11
F0.007066497553904693
sg12
F0.0
sg13
F0.00041794371691278906
sg14
F0.0
sg15
F0.0
sg16
F0.0
sg17
F0.09859375
sg18
F0.0
sg19
F0.0
sg20
F0.4974123059229443
sg21
F0.0
sg22
F0.2596957682194414
sg23
F0.8787784847951082
sg24
F0.010916022205645004
sg25
F0.36956932609361476
sg26
F0.35714673023462373
sg27
F0.0
ssS'BLACHMAN JEREMY M'
p50
(dp51
g3
F0.16021733368672142
sg4
F0.0
sg5
F0.3681014849429322
sg6
I00
sg7
F1.0
sg8
F0.04734848484848485
sg9
F0.16165963842894499
sg10
F0.9999999999999999
sg11
F0.4210907773147309
sg12
F0.0
sg13
F0.0001393145723042631
sg14
F2.6255513054443797e-05
sg15
F0.14285714285714285
sg16
F0.0
sg17
F0.10625
sg18
F0.01943295630685009
sg19
F0.003284072249589491
sg20
F0.046475392220073075
sg21
F0.012806186065095239
sg22
F0.22366183190582203
sg23
F0.3605593068435107
sg24
F0.01945576503807805
sg25
F0.12118271103396491
sg26
F0.9375768761320108
sg27
F0.022280902647414214
ssS'SUNDE MARTIN'
p52
(dp53
g3
F0.17161410018552875
sg4
F0.0
sg5
F0.0
sg6
I00
sg7
F1.0
sg8
F0.07007575757575758
sg9
F0.09259685383196053
sg10
F0.9999999999999999
sg11
F0.46439572386301864
sg12
F0.0
sg13
F0.0018110894399554194
sg14
F0.010726342358955528
sg15
F0.34210526315789475
sg16
F0.0
sg17
F0.0875
sg18
F0.014231702095850876
sg19
F0.02134646962233169
sg20
F0.06431407695584725
sg21
F0.04734686953949865
sg22
F0.2317067683652221
sg23
F0.39289353180177544
sg24
F0.014919487141114698
sg25
F0.16611412432516118
sg26
F0.9673128175097986
sg27
F0.0
ssS'GIBBS DANA R'
p54
(dp55
g3
F0.007421150278293135
sg4
F0.07851420338292109
sg5
F0.0
sg6
I00
sg7
F1.0
sg8
F0.0
sg9
F0.08977124184276779
sg10
F0.9999999999999999
sg11
F0.003805037144410219
sg12
F0.0
sg13
F0.0
sg14
F0.0
sg15
F0.0
sg16
F0.0
sg17
F0.0
sg18
F0.04516944566856522
sg19
F0.0
sg20
F0.0
sg21
F0.0
sg22
F0.0
sg23
F0.0
sg24
F0.009332985051447524
sg25
F0.0
sg26
F0.11978194405597861
sg27
F0.06458164087137258
ssS'LOWRY CHARLES P'
p56
(dp57
g3
F0.13363771966050086
sg4
F0.0
sg5
F0.0
sg6
I00
sg7
F1.0
sg8
F0.12290785764622973
sg9
F0.0
sg10
F0.9409919024453923
sg11
F0.21280397105980606
sg12
F0.0
sg13
F0.04157082040083719
sg14
F0.0
sg15
F0.06772862709145083
sg16
F0.0
sg17
F0.0
sg18
F0.0075789942748614655
sg19
F0.0677053499828159
sg20
F0.14397672711291465
sg21
F0.010411135740925125
sg22
F0.0
sg23
F0.0
sg24
F0.0
sg25
F0.0
sg26
F0.5585301249239991
sg27
F0.010836172088911081
ssS'COLWELL WESLEY'
p58
(dp59
g3
F0.11270871985157697
sg4
F0.004295945691529005
sg5
F0.07218824722529431
sg6
I01
sg7
F0.9588909440912046
sg8
F0.4545454545454546
sg9
F0.0
sg10
F0.9999999999999999
sg11
F0.20474723681826418
sg12
F0.0
sg13
F0.0019504040122596822
sg14
F0.009820720213820265
sg15
F0.275
sg16
F0.0
sg17
F0.15
sg18
F0.014217896375566742
sg19
F0.0180623973727422
sg20
F0.6281315808583255
sg21
F0.04730093985148317
sg22
F0.2596534738107622
sg23
F0.6905788235083679
sg24
F0.014391145026719008
sg25
F0.1908609801568747
sg26
F0.6365045832682057
sg27
F0.0
ssS'MULLER MARK S'
p60
(dp61
g3
F0.005234561357010337
sg4
F0.13115377493974628
sg5
F0.0
sg6
I00
sg7
F0.7948285377238694
sg8
F0.022727272727272728
sg9
F0.33535460759966995
sg10
F0.9999999999999999
sg11
F0.020293531436854504
sg12
F0.0
sg13
F0.00027862914460852607
sg14
F9.141165758293484e-05
sg15
F0.0
sg16
F0.0
sg17
F0.13749999999999998
sg18
F0.02885045305772066
sg19
F0.0
sg20
F0.40597622027534425
sg21
F0.024423213216586116
sg22
F0.2264586621648618
sg23
F0.29994944334177637
sg24
F0.03092001159175743
sg25
F0.07887426303526444
sg26
F0.8342334543795992
sg27
F0.030753120729056713
ssS'JACKSON CHARLENE R'
p62
(dp63
g3
F0.013318314338722503
sg4
F0.0
sg5
F0.04450457460341052
sg6
I00
sg7
F1.0
sg8
F0.04734848484848485
sg9
F0.0
sg10
F0.9999999999999999
sg11
F0.02083710817177025
sg12
F0.0
sg13
F0.003064920590693787
sg14
F0.0002350447584101862
sg15
F0.3392857142857143
sg16
F0.0
sg17
F0.03125
sg18
F0.014777720369330304
sg19
F0.031198686371100164
sg20
F0.4458395183902359
sg21
F0.03662669067655785
sg22
F0.25966787190733387
sg23
F0.246590129143059
sg24
F0.005322277923054558
sg25
F0.3271484749128618
sg26
F0.4427406224956495
sg27
F0.005387822611974991
ssS'WESTFAHL RICHARD K'
p64
(dp65
g3
F0.13363771966050086
sg4
F0.0
sg5
F0.22674121252125565
sg6
I00
sg7
F0.9969181477154628
sg8
F0.12290785764622973
sg9
F0.04978996912602514
sg10
F0.9999999999999999
sg11
F0.21280397105980606
sg12
F0.0
sg13
F0.04157082040083719
sg14
F0.038720124821797944
sg15
F0.06772862709145083
sg16
F0.0
sg17
F0.0
sg18
F0.007838106060430203
sg19
F0.0677053499828159
sg20
F0.14397672711291465
sg21
F0.02607627552772737
sg22
F0.05736201674138679
sg23
F0.0
sg24
F0.00735937160476943
sg25
F0.08044943766593664
sg26
F0.5585301249239991
sg27
F0.0
ssS'WALTERS GARETH W'
p66
(dp67
g3
F0.13363771966050086
sg4
F0.00834371922159518
sg5
F0.14768559600984427
sg6
I00
sg7
F1.0
sg8
F0.12290785764622973
sg9
F0.0
sg10
F0.9999999999999999
sg11
F0.21280397105980606
sg12
F0.0
sg13
F0.04157082040083719
sg14
F0.0
sg15
F0.06772862709145083
sg16
F0.0
sg17
F0.0
sg18
F0.02097999111302572
sg19
F0.0677053499828159
sg20
F0.14397672711291465
sg21
F0.0
sg22
F0.0
sg23
F0.0
sg24
F0.0008440534445641466
sg25
F0.0
sg26
F0.5585301249239991
sg27
F0.02999643301996391
ssS'WALLS JR ROBERT H'
p68
(dp69
g3
F0.040683805989928434
sg4
F0.0
sg5
F0.22265838444153996
sg6
I00
sg7
F1.0
sg8
F0.032196969696969696
sg9
F0.10509337016080665
sg10
F0.9999999999999999
sg11
F0.03859394817901794
sg12
F0.0
sg13
F0.009334076344385623
sg14
F1.9305524304738086e-07
sg15
F0.0
sg16
F0.0
sg17
F0.10625
sg18
F0.12011785035242664
sg19
F0.0
sg20
F0.11656942638805214
sg21
F0.10516767249070465
sg22
F0.3213394189288176
sg23
F0.13907505085265223
sg24
F0.01736948238202832
sg25
F0.06715607534329572
sg26
F0.3073363535699958
sg27
F0.1265428964576616
ssS'KITCHEN LOUISE'
p70
(dp71
g3
F0.5465147097800158
sg4
F0.0
sg5
F0.025240095644837673
sg6
I00
sg7
F1.0
sg8
F0.4753787878787879
sg9
F0.0
sg10
F0.9999999999999999
sg11
F0.664431962312013
sg12
F0.0
sg13
F0.11953190303705769
sg14
F0.009066356851612624
sg15
F0.11226851851851852
sg16
F0.0
sg17
F0.38749999999999996
sg18
F0.011141155182038197
sg19
F0.3185550082101806
sg20
F0.13905683579489414
sg21
F0.031575034680979025
sg22
F0.2442655080998292
sg23
F0.9716652990810968
sg24
F0.03351823038116733
sg25
F0.09779308513908717
sg26
F0.43082905829298945
sg27
F0.002359412308887661
ssS'CHAN RONNIE'
p72
(dp73
g3
F0.13363771966050086
sg4
F0.0
sg5
F0.0
sg6
I00
sg7
F0.9718113244374336
sg8
F0.12290785764622973
sg9
F0.0
sg10
F0.9875369074175749
sg11
F0.21280397105980606
sg12
F0.0
sg13
F0.04157082040083719
sg14
F0.0
sg15
F0.06772862709145083
sg16
F0.7900571044675848
sg17
F0.0
sg18
F0.0
sg19
F0.0677053499828159
sg20
F0.14397672711291465
sg21
F0.002198934620918168
sg22
F0.0
sg23
F0.0
sg24
F0.0
sg25
F0.0
sg26
F0.5585301249239991
sg27
F0.0
ssS'BELFER ROBERT'
p74
(dp75
g3
F0.13363771966050086
sg4
F0.0
sg5
F0.01435983965938548
sg6
I00
sg7
F0.9707509389661984
sg8
F0.12290785764622973
sg9
F0.0
sg10
F0.9830703899803799
sg11
F0.21280397105980606
sg12
F0.0
sg13
F0.04157082040083719
sg14
F0.0
sg15
F0.06772862709145083
sg16
F0.819777020650383
sg17
F0.0
sg18
F0.0
sg19
F0.0677053499828159
sg20
F0.14397672711291465
sg21
F0.0029869878077678617
sg22
F0.0
sg23
F0.0
sg24
F3.172080500392657e-05
sg25
F0.0
sg26
F0.5585301249239991
sg27
F0.0
ssS'SHANKMAN JEFFREY A'
p76
(dp77
g3
F0.20964749536178107
sg4
F0.0
sg5
F0.7823773949458611
sg6
I00
sg7
F1.0
sg8
F0.17803030303030304
sg9
F0.10775028889691327
sg10
F0.9999999999999999
sg11
F0.31310019931146943
sg12
F0.0
sg13
F0.18591529674003904
sg14
F0.0001149643972347153
sg15
F0.030958597538232
sg16
F0.0
sg17
F0.25
sg18
F0.0421916454704063
sg19
F0.13628899835796388
sg20
F0.13427506985408258
sg21
F0.04268730946461835
sg22
F0.2736628217749613
sg23
F0.4928810153430855
sg24
F0.029342488160438867
sg25
F0.08614278282547691
sg26
F0.5278185282654191
sg27
F0.041978627000327
ssS'WODRASKA JOHN'
p78
(dp79
g3
F0.13363771966050086
sg4
F0.0
sg5
F0.0
sg6
I00
sg7
F1.0
sg8
F0.12290785764622973
sg9
F0.0
sg10
F0.9999999999999999
sg11
F0.21280397105980606
sg12
F0.0
sg13
F0.04157082040083719
sg14
F0.018299996071325802
sg15
F0.06772862709145083
sg16
F0.0
sg17
F0.0
sg18
F0.0
sg19
F0.0677053499828159
sg20
F0.14397672711291465
sg21
F0.0
sg22
F0.0
sg23
F0.0
sg24
F0.0018306622146299577
sg25
F0.0
sg26
F0.5585301249239991
sg27
F0.0
ssS'BERGSIEKER RICHARD P'
p80
(dp81
g3
F0.021600848131460376
sg4
F0.0
sg5
F0.258673824001259
sg6
I00
sg7
F0.8613700088974217
sg8
F0.007575757575757576
sg9
F0.0350310586045803
sg10
F0.9999999999999999
sg11
F0.04185540858851241
sg12
F0.0
sg13
F0.003273892449150181
sg14
F0.0412477971190173
sg15
F0.0
sg16
F0.0
sg17
F0.03125
sg18
F0.013423904559874656
sg19
F0.0
sg20
F0.04805288595078051
sg21
F0.04465944084737158
sg22
F0.16910744399590374
sg23
F0.2463605364012759
sg24
F0.005975774787421601
sg25
F0.2128554917734935
sg26
F0.6003226771633859
sg27
F0.0
ssS'URQUHART JOHN A'
p82
(dp83
g3
F0.13363771966050086
sg4
F0.0
sg5
F0.999532267018705
sg6
I00
sg7
F0.9895371114939964
sg8
F0.12290785764622973
sg9
F0.0
sg10
F0.9999999999999999
sg11
F0.21280397105980606
sg12
F0.0
sg13
F0.04157082040083719
sg14
F0.0
sg15
F0.06772862709145083
sg16
F0.2932482364796775
sg17
F0.0
sg18
F0.0
sg19
F0.0677053499828159
sg20
F0.14397672711291465
sg21
F0.0
sg22
F0.0
sg23
F0.0
sg24
F0.00220796115341791
sg25
F0.0
sg26
F0.5585301249239991
sg27
F0.0
ssS'BIBI PHILIPPE A'
p84
(dp85
g3
F0.10270341902994963
sg4
F0.0
sg5
F0.1685543553808964
sg6
I00
sg7
F1.0
sg8
F0.043560606060606064
sg9
F0.07185419150260212
sg10
F0.9999999999999999
sg11
F0.2417104547925349
sg12
F0.0
sg13
F0.0019504040122596822
sg14
F0.04109065015117673
sg15
F0.2
sg16
F0.0
sg17
F0.125
sg18
F0.03754455450060576
sg19
F0.013136288998357963
sg20
F0.06585218922533068
sg21
F0.025612372130190478
sg22
F0.1922370862571968
sg23
F0.32365979028566194
sg24
F0.01977208471245206
sg25
F0.07947250925298997
sg26
F0.8272404498742941
sg27
F0.04267257522217057
ssS'PIRO JIM'
p86
(dp87
g3
F6.626027034190279e-05
sg4
F0.0
sg5
F0.0
sg6
I00
sg7
F1.0
sg8
F0.0
sg9
F0.0
sg10
F0.9999999999999999
sg11
F0.0001811922449719152
sg12
F0.0
sg13
F0.00027862914460852607
sg14
F0.0
sg15
F0.0625
sg16
F0.0
sg17
F0.0
sg18
F0.0009632238824788671
sg19
F0.0016420361247947454
sg20
F0.0
sg21
F0.0032045102682659588
sg22
F0.0
sg23
F0.0
sg24
F0.0
sg25
F0.0
sg26
F0.033932107656648856
sg27
F0.0
ssS'RIEKER PAULA H'
p88
(dp89
g3
F0.08421680360455869
sg4
F0.0334025725884123
sg5
F0.1454387291651185
sg6
I01
sg7
F0.9714643306987301
sg8
F0.06628787878787878
sg9
F0.0
sg10
F0.9999999999999999
sg11
F0.22757745968472548
sg12
F0.0
sg13
F0.004876010030649206
sg14
F0.00018822886197119635
sg15
F0.5853658536585366
sg16
F0.0
sg17
F0.0875
sg18
F0.03907318167973588
sg19
F0.07881773399014778
sg20
F0.12126297744168163
sg21
F0.019215206601627156
sg22
F0.22425125398422327
sg23
F0.2921300968489977
sg24
F0.010613192322622738
sg25
F0.11953749341719691
sg26
F0.9451993985301379
sg27
F0.04760742164755116
ssS'WHALEY DAVID A'
p90
(dp91
g3
F0.13363771966050086
sg4
F0.0
sg5
F0.0
sg6
I00
sg7
F1.0
sg8
F0.12290785764622973
sg9
F0.0
sg10
F0.9999999999999999
sg11
F0.21280397105980606
sg12
F0.0
sg13
F0.04157082040083719
sg14
F0.0
sg15
F0.06772862709145083
sg16
F0.0
sg17
F0.0
sg18
F0.00201013730827306
sg19
F0.0677053499828159
sg20
F0.14397672711291465
sg21
F0.0
sg22
F0.0
sg23
F0.0
sg24
F0.0
sg25
F0.0
sg26
F0.5585301249239991
sg27
F0.002874021671587228
ssS'BECK SALLY W'
p92
(dp93
g3
F0.4809170421415319
sg4
F0.0
sg5
F0.16249131196915587
sg6
I00
sg7
F1.0
sg8
F0.2727272727272727
sg9
F0.0
sg10
F0.9999999999999999
sg11
F0.47780394999094034
sg12
F0.0
sg13
F0.3016857063248816
sg14
F5.463463378240878e-05
sg15
F0.08887865530739121
sg16
F0.0
sg17
F0.0875
sg18
F0.0025662146168857645
sg19
F0.6338259441707718
sg20
F0.09057459897325519
sg21
F0.0085374347957626
sg22
F0.2081694799947447
sg23
F0.8050852525114407
sg24
F0.009357569882357721
sg25
F0.30581014637695025
sg26
F0.3483920571665485
sg27
F0.0
ssS'HAUG DAVID L'
p94
(dp95
g3
F0.034190299496421946
sg4
F0.0
sg5
F0.0020763847300481284
sg6
I00
sg7
F1.0
sg8
F0.007575757575757576
sg9
F0.0
sg10
F0.9999999999999999
sg11
F0.08497916289182823
sg12
F0.0
sg13
F0.00048760100306492065
sg14
F0.0
sg15
F0.3684210526315789
sg16
F0.0
sg17
F0.0
sg18
F0.04514957194733024
sg19
F0.011494252873563218
sg20
F0.032119119230626415
sg21
F0.15020627036436332
sg22
F0.0
sg23
F0.0
sg24
F4.5867221847382405e-06
sg25
F0.0
sg26
F0.8177028460553033
sg27
F0.0
ssS'ECHOLS JOHN B'
p96
(dp97
g3
F0.13363771966050086
sg4
F0.0
sg5
F0.09411486997460254
sg6
I00
sg7
F1.0
sg8
F0.12290785764622973
sg9
F0.4343217695533555
sg10
F0.9999999999999999
sg11
F0.21280397105980606
sg12
F0.0
sg13
F0.04157082040083719
sg14
F0.005190772847436453
sg15
F0.06772862709145083
sg16
F0.0
sg17
F0.024999999999999998
sg18
F0.02054447968907726
sg19
F0.0677053499828159
sg20
F0.14397672711291465
sg21
F0.027605436069871113
sg22
F0.16399881935608113
sg23
F0.0680574139304123
sg24
F0.025997773093269894
sg25
F0.07128155585306893
sg26
F0.5585301249239991
sg27
F0.017509935838611795
ssS'MENDELSOHN JOHN'
p98
(dp99
g3
F0.13363771966050086
sg4
F0.0
sg5
F0.000646957768520259
sg6
I00
sg7
F0.9703942430999325
sg8
F0.12290785764622973
sg9
F0.0
sg10
F0.9999999999999999
sg11
F0.21280397105980606
sg12
F0.0
sg13
F0.04157082040083719
sg14
F0.0
sg15
F0.06772862709145083
sg16
F0.8297743013900218
sg17
F0.0
sg18
F0.0
sg19
F0.0677053499828159
sg20
F0.14397672711291465
sg21
F0.0
sg22
F0.0
sg23
F0.0
sg24
F1.4291260701921256e-06
sg25
F0.0
sg26
F0.5585301249239991
sg27
F0.0
ssS'HICKERSON GARY J'
p100
(dp101
g3
F0.08368672144182347
sg4
F0.0
sg5
F0.43210221932742626
sg6
I00
sg7
F1.0
sg8
F0.07575757575757576
sg9
F0.013453286933619206
sg10
F0.9999999999999999
sg11
F0.16271063598477986
sg12
F0.0
sg13
F0.001044859292281973
sg14
F0.00018687747526986468
sg15
F0.037037037037037035
sg16
F0.0
sg17
F0.2125
sg18
F0.008981781702729123
sg19
F0.0016420361247947454
sg20
F0.13942617666021923
sg21
F0.029881123399523115
sg22
F0.19058400479456616
sg23
F0.848683754776167
sg24
F0.020102357678524908
sg25
F0.12152745927231207
sg26
F0.6750738230900516
sg27
F0.0
ssS'CLINE KENNETH W'
p102
(dp103
g3
F0.13363771966050086
sg4
F0.0
sg5
F0.0
sg6
I00
sg7
F1.0
sg8
F0.12290785764622973
sg9
F0.0
sg10
F0.818556416035385
sg11
F0.21280397105980606
sg12
F0.0
sg13
F0.04157082040083719
sg14
F0.0
sg15
F0.06772862709145083
sg16
F0.0
sg17
F0.0
sg18
F0.0038590449805435047
sg19
F0.0677053499828159
sg20
F0.14397672711291465
sg21
F0.044851627462268215
sg22
F0.0
sg23
F0.0
sg24
F0.0
sg25
F0.0
sg26
F0.5585301249239991
sg27
F0.0
ssS'LEWIS RICHARD'
p104
(dp105
g3
F0.05930294195600317
sg4
F0.0
sg5
F0.0
sg6
I00
sg7
F1.0
sg8
F0.01893939393939394
sg9
F0.0
sg10
F0.9999999999999999
sg11
F0.1335386845443015
sg12
F0.0
sg13
F0.0009752020061298412
sg14
F0.0
sg15
F0.0
sg16
F0.0
sg17
F0.0
sg18
F0.017317769277417967
sg19
F0.0
sg20
F0.048330502413731456
sg21
F0.0
sg22
F0.0
sg23
F0.0
sg24
F0.0
sg25
F0.0
sg26
F0.77117203758661
sg27
F0.024760320601982324
ssS'HAYES ROBERT E'
p106
(dp107
g3
F0.02961834084283064
sg4
F0.001238682493671221
sg5
F0.0
sg6
I00
sg7
F1.0
sg8
F0.030303030303030304
sg9
F0.0
sg10
F0.9999999999999999
sg11
F0.00869722775865193
sg12
F0.0
sg13
F0.0
sg14
F0.0
sg15
F0.0
sg16
F0.0
sg17
F0.0
sg18
F0.0030832368052846506
sg19
F0.0
sg20
F0.14606551840594395
sg21
F0.010257494837652101
sg22
F0.0
sg23
F0.0
sg24
F7.687346381621292e-05
sg25
F0.0
sg26
F0.08224684207600638
sg27
F0.0
ssS'KOPPER MICHAEL J'
p108
(dp109
g3
F0.13363771966050086
sg4
F0.0
sg5
F0.5164034393673802
sg6
I01
sg7
F1.0
sg8
F0.12290785764622973
sg9
F0.11712734047312628
sg10
F0.9999999999999999
sg11
F0.21280397105980606
sg12
F0.0
sg13
F0.04157082040083719
sg14
F0.08759900958799212
sg15
F0.06772862709145083
sg16
F0.0
sg17
F0.09999999999999999
sg18
F0.020057634606078206
sg19
F0.0677053499828159
sg20
F0.14397672711291465
sg21
F0.06672892691042098
sg22
F0.20184781571876198
sg23
F0.27699084811064245
sg24
F0.025614303806111315
sg25
F0.08926690738598274
sg26
F0.5585301249239991
sg27
F0.0
ssS'LEFF DANIEL P'
p110
(dp111
g3
F0.18320964749536175
sg4
F0.0
sg5
F0.0
sg6
I00
sg7
F1.0
sg8
F0.1268939393939394
sg9
F0.2696369246986746
sg10
F0.9999999999999999
sg11
F0.4837832940750136
sg12
F0.0
sg13
F0.0035525215937587075
sg14
F0.0002975946571575376
sg15
F0.2222222222222222
sg16
F0.0
sg17
F0.125
sg18
F0.0073412223047171704
sg19
F0.022988505747126436
sg20
F0.10923858135922918
sg21
F0.024423213216586116
sg22
F0.24633883400614437
sg23
F0.4163947838621487
sg24
F0.025726470890106934
sg25
F0.13101745646581628
sg26
F0.9447486838910212
sg27
F0.0
ssS'LAVORATO JOHN J'
p112
(dp113
g3
F0.47720646700238534
sg4
F0.0
sg5
F0.216542884994514
sg6
I00
sg7
F1.0
sg8
F1.0
sg9
F0.3955701307217234
sg10
F0.9999999999999999
sg11
F0.7175212900887842
sg12
F0.0
sg13
F0.1792281972694344
sg14
F0.00014981086860476754
sg15
F0.15899419729206962
sg16
F0.0
sg17
F1.0
sg18
F0.10521555270183036
sg19
F0.6748768472906403
sg20
F0.33466892163213385
sg21
F0.06829493959162139
sg22
F0.30531883684976846
sg23
F0.6461877085505704
sg24
F0.10067379142018949
sg25
F0.031500199695821025
sg26
F0.53667608289348
sg27
F0.12108269780610348
ssS'BERBERIAN DAVID'
p114
(dp115
g3
F0.13363771966050086
sg4
F0.0
sg5
F0.05198393096785757
sg6
I00
sg7
F1.0
sg8
F0.12290785764622973
sg9
F0.0
sg10
F0.9999999999999999
sg11
F0.21280397105980606
sg12
F0.0
sg13
F0.04157082040083719
sg14
F0.0
sg15
F0.06772862709145083
sg16
F0.0
sg17
F0.0
sg18
F0.050776054560532365
sg19
F0.0677053499828159
sg20
F0.14397672711291465
sg21
F0.05888348586551109
sg22
F0.19489803447984175
sg23
F0.0
sg24
F0.002206203714601863
sg25
F0.11518385475257982
sg26
F0.5585301249239991
sg27
F0.04729177361007726
ssS'DETMERING TIMOTHY J'
p116
(dp117
g3
F0.13363771966050086
sg4
F0.13619236998968412
sg5
F0.22842417698666306
sg6
I00
sg7
F0.7787797919521422
sg8
F0.12290785764622973
sg9
F0.08078171831569504
sg10
F0.8790289077708111
sg11
F0.21280397105980606
sg12
F0.0
sg13
F0.04157082040083719
sg14
F0.00010666302178367792
sg15
F0.06772862709145083
sg16
F0.0
sg17
F0.053125
sg18
F0.04129223741000778
sg19
F0.0677053499828159
sg20
F0.14397672711291465
sg21
F0.021343620860857837
sg22
F0.18942495802054968
sg23
F0.1655972080180991
sg24
F0.01163176330412325
sg25
F0.09427407542812864
sg26
F0.5585301249239991
sg27
F0.05903814863604646
ssS'WAKEHAM JOHN'
p118
(dp119
g3
F0.13363771966050086
sg4
F0.0
sg5
F0.4536266791395462
sg6
I00
sg7
F1.0
sg8
F0.12290785764622973
sg9
F0.0
sg10
F0.9999999999999999
sg11
F0.21280397105980606
sg12
F0.0
sg13
F0.04157082040083719
sg14
F0.0
sg15
F0.06772862709145083
sg16
F0.8741462322248348
sg17
F0.0
sg18
F0.0
sg19
F0.0677053499828159
sg20
F0.14397672711291465
sg21
F0.0
sg22
F0.0
sg23
F0.0
sg24
F0.0020574683844723405
sg25
F0.0
sg26
F0.5585301249239991
sg27
F0.0
ssS'POWERS WILLIAM'
p120
(dp121
g3
F0.03949112112377418
sg4
F0.0
sg5
F0.0
sg6
I00
sg7
F0.9950062578722778
sg8
F0.0
sg9
F0.0
sg10
F0.9999999999999999
sg11
F0.001811922449719152
sg12
F0.0
sg13
F0.0009752020061298412
sg14
F0.0
sg15
F0.0
sg16
F0.13996193035494345
sg17
F0.0
sg18
F0.0
sg19
F0.0
sg20
F0.0
sg21
F0.0
sg22
F0.0
sg23
F0.0
sg24
F0.0
sg25
F0.0
sg26
F0.0
sg27
F0.0
ssS'GOLD JOSEPH'
p122
(dp123
g3
F0.13363771966050086
sg4
F0.0
sg5
F0.0
sg6
I00
sg7
F1.0
sg8
F0.12290785764622973
sg9
F0.05923795738124326
sg10
F0.9999999999999999
sg11
F0.21280397105980606
sg12
F0.0
sg13
F0.04157082040083719
sg14
F0.07908392198290129
sg15
F0.06772862709145083
sg16
F0.0
sg17
F0.09375
sg18
F0.0178702831626535
sg19
F0.0677053499828159
sg20
F0.14397672711291465
sg21
F0.029881123399523115
sg22
F0.24555953702920474
sg23
F0.31231384733960205
sg24
F0.02073172355607161
sg25
F0.1306104076167493
sg26
F0.5585301249239991
sg27
F0.01270845813299397
ssS'BANNANTINE JAMES M'
p124
(dp125
g3
F0.033726477604028623
sg4
F0.0
sg5
F0.24611060355039935
sg6
I00
sg7
F0.9985435394388632
sg8
F0.07386363636363637
sg9
F0.0
sg10
F0.7849014586348958
sg11
F0.08389200942199673
sg12
F0.0
sg13
F0.0011841738645862357
sg14
F0.08345034894252543
sg15
F0.0
sg16
F0.0
sg17
F0.0
sg18
F0.10677008087830771
sg19
F0.0
sg20
F0.31703443350124055
sg21
F0.1190616740869984
sg22
F0.0004292432540418157
sg23
F0.0
sg24
F0.008847033906296046
sg25
F0.00011210672743386854
sg26
F0.8172604647965787
sg27
F0.11779759420414072
ssS'DUNCAN JOHN H'
p126
(dp127
g3
F0.13363771966050086
sg4
F0.0
sg5
F0.0
sg6
I00
sg7
F0.9928660826746826
sg8
F0.12290785764622973
sg9
F0.0
sg10
F0.9999999999999999
sg11
F0.21280397105980606
sg12
F0.0
sg13
F0.04157082040083719
sg14
F0.0
sg15
F0.06772862709145083
sg16
F0.8197130380536494
sg17
F0.0
sg18
F0.007569729374080815
sg19
F0.0677053499828159
sg20
F0.14397672711291465
sg21
F0.0
sg22
F0.0
sg23
F0.0
sg24
F0.0007482826853468121
sg25
F0.0
sg26
F0.5585301249239991
sg27
F0.0108229254686334
ssS'SHAPIRO RICHARD S'
p128
(dp129
g3
F1.0
sg4
F0.0
sg5
F0.6022258844306116
sg6
I00
sg7
F1.0
sg8
F0.14015151515151517
sg9
F0.0
sg10
F0.9999999999999999
sg11
F0.8198949084979162
sg12
F0.0
sg13
F0.08379771524101422
sg14
F6.805197317420175e-05
sg15
F0.053497942386831275
sg16
F0.0
sg17
F0.08125
sg18
F0.02009772820967623
sg19
F0.10673234811165845
sg20
F0.02247532664890457
sg21
F0.025685669950887748
sg22
F0.24213638956929892
sg23
F0.4004160348107232
sg24
F0.010211955522159068
sg25
F0.19052377082434033
sg26
F0.2853722022600453
sg27
F0.017696232812582972
ssS'SHERRIFF JOHN R'
p130
(dp131
g3
F0.20739464617015635
sg4
F0.0
sg5
F0.0
sg6
I00
sg7
F1.0
sg8
F0.05303030303030303
sg9
F0.10775028889691327
sg10
F0.9999999999999999
sg11
F0.3806849066859938
sg12
F0.0
sg13
F0.005572582892170521
sg14
F0.1787871091994781
sg15
F0.25
sg16
F0.0
sg17
F0.1875
sg18
F0.06371364346030972
sg19
F0.03776683087027914
sg20
F0.04042352909759729
sg21
F0.08762029615300249
sg22
F0.385850990499056
sg23
F0.25310092228595393
sg24
F0.04186362172431148
sg25
F0.08315973372247645
sg26
F0.6527389990134561
sg27
F0.05343942818387031
ssS'SHELBY REX'
p132
(dp133
g3
F0.011131725417439703
sg4
F0.0
sg5
F0.10003365928930816
sg6
I01
sg7
F0.9988109186602161
sg8
F0.02462121212121212
sg9
F0.0
sg10
F0.9999999999999999
sg11
F0.016126109802500455
sg12
F0.0
sg13
F0.0018807467261075508
sg14
F0.15186922360613872
sg15
F0.358974358974359
sg16
F0.0
sg17
F0.024999999999999998
sg18
F0.050776054560532365
sg19
F0.022988505747126436
sg20
F0.265839243498818
sg21
F0.05888348586551109
sg22
F0.19063439813256686
sg23
F0.056008553232372256
sg24
F0.019350029021398294
sg25
F0.06818936220371484
sg26
F0.39283678955316054
sg27
F0.04729177361007726
ssS'LEMAISTRE CHARLES'
p134
(dp135
g3
F0.13363771966050086
sg4
F0.0
sg5
F0.0
sg6
I00
sg7
F0.9928660826746826
sg8
F0.12290785764622973
sg9
F0.0
sg10
F0.9999999999999999
sg11
F0.21280397105980606
sg12
F0.0
sg13
F0.04157082040083719
sg14
F0.0
sg15
F0.06772862709145083
sg16
F0.8996912839707599
sg17
F0.0
sg18
F0.008407194954974415
sg19
F0.0677053499828159
sg20
F0.14397672711291465
sg21
F0.0
sg22
F0.0
sg23
F0.0
sg24
F0.0008448452576570909
sg25
F0.0
sg26
F0.5585301249239991
sg27
F0.012020303487931193
ssS'DEFFNER JOSEPH M'
p136
(dp137
g3
F0.04353299761463027
sg4
F0.0
sg5
F0.18196124373259664
sg6
I00
sg7
F1.0
sg8
F0.2178030303030303
sg9
F0.06517409415804382
sg10
F0.9999999999999999
sg11
F0.09965573473455336
sg12
F0.0
sg13
F0.004318751741432154
sg14
F0.0024665703127948616
sg15
F0.05405405405405406
sg16
F0.0
sg17
F0.075
sg18
F0.0032419211388749983
sg19
F0.006568144499178982
sg20
F0.7410677036772156
sg21
F0.009608179115486339
sg22
F0.1854843789651008
sg23
F0.552465583110437
sg24
F0.01167102564602461
sg25
F0.21814854458391167
sg26
F0.7679655248683224
sg27
F0.0005059335542539643
ssS'KISHKILL JOSEPH G'
p138
(dp139
g3
F0.13363771966050086
sg4
F0.0
sg5
F0.5085394054108401
sg6
I00
sg7
F0.9854348236752458
sg8
F0.12290785764622973
sg9
F0.0
sg10
F0.9999999999999999
sg11
F0.21280397105980606
sg12
F0.0
sg13
F0.04157082040083719
sg14
F0.04491980436940001
sg15
F0.06772862709145083
sg16
F0.0
sg17
F0.0
sg18
F0.02106178695134632
sg19
F0.0677053499828159
sg20
F0.14397672711291465
sg21
F0.07006960041306912
sg22
F0.15680067095130024
sg23
F0.0
sg24
F0.006806657097122626
sg25
F0.14503557184961496
sg26
F0.5585301249239991
sg27
F0.0
ssS'WHALLEY LAWRENCE G'
p140
(dp141
g3
F0.3950437317784256
sg4
F0.0
sg5
F0.2528293474032077
sg6
I00
sg7
F1.0
sg8
F0.3522727272727273
sg9
F0.15709967322484364
sg10
F0.9999999999999999
sg11
F0.7099112157999637
sg12
F0.0
sg13
F0.03789356366675954
sg14
F0.029057323796790435
sg15
F0.04316546762589928
sg16
F0.0
sg17
F0.375
sg18
F0.12378593656479227
sg19
F0.03940886699507389
sg20
F0.14218273340096788
sg21
F0.1894211463806254
sg22
F0.45926688491781387
sg23
F0.35126702414587624
sg24
F0.04516785776116798
sg25
F0.06868663820462706
sg26
F0.6439910210639158
sg27
F0.09557829561938053
ssS'MCCARTY DANNY J'
p142
(dp143
g3
F0.09117413199045851
sg4
F0.0
sg5
F0.0
sg6
I00
sg7
F1.0
sg8
F0.04734848484848485
sg9
F0.0
sg10
F0.9999999999999999
sg11
F0.0916832759557891
sg12
F0.0
sg13
F0.014140429088882698
sg14
F0.0
sg15
F0.009302325581395349
sg16
F0.0
sg17
F0.0
sg18
F0.015453671240351114
sg19
F0.003284072249589491
sg20
F0.08026978070110319
sg21
F0.006405497905592678
sg22
F0.0
sg23
F0.0
sg24
F0.0
sg25
F0.0
sg26
F0.3420177158294926
sg27
F0.01934224911425236
ssS'MCCONNELL MICHAEL S'
p144
(dp145
g3
F0.21680360455870656
sg4
F0.0
sg5
F0.3556694045802862
sg6
I00
sg7
F1.0
sg8
F0.17424242424242425
sg9
F0.10775028889691327
sg10
F0.9999999999999999
sg11
F0.39626743975357853
sg12
F0.0
sg13
F0.19016439119531905
sg14
F5.2124915622792834e-05
sg15
F0.07075127644055434
sg16
F0.0
sg17
F0.13749999999999998
sg18
F0.06314954335849354
sg19
F0.3185550082101806
sg20
F0.1271546627637205
sg21
F0.10014223299846209
sg22
F0.3284907735197407
sg23
F0.26629578138290694
sg24
F0.02029131132002166
sg25
F0.10157475397487885
sg26
F0.6503850440792559
sg27
F0.04725142236676986
ssS'DELAINEY DAVID W'
p146
(dp147
g3
F0.20116618075801748
sg4
F0.0
sg5
F0.3766955320571946
sg6
I01
sg7
F1.0
sg8
F0.125
sg9
F0.2516757575745797
sg10
F0.9999999999999999
sg11
F0.3795977532161623
sg12
F0.0
sg13
F0.21294232376706607
sg14
F0.00016033237935084981
sg15
F0.198435972629521
sg16
F0.0
sg17
F0.375
sg18
F0.07359509793488823
sg19
F1.0
sg20
F0.09817982953959181
sg21
F0.08963388619219446
sg22
F0.3286032586492066
sg23
F0.45184996634480856
sg24
F0.0458477065515185
sg25
F0.0632172889550805
sg26
F0.6711709307910267
sg27
F0.06670220642694573
ssS'SULLIVAN-SHAKLOVITZ COLLEEN'
p148
(dp149
g3
F0.13363771966050086
sg4
F0.028316988201319747
sg5
F0.0
sg6
I00
sg7
F1.0
sg8
F0.12290785764622973
sg9
F0.10775028889691327
sg10
F0.9999999999999999
sg11
F0.21280397105980606
sg12
F0.0
sg13
F0.04157082040083719
sg14
F1.563747468683785e-05
sg15
F0.06772862709145083
sg16
F0.0
sg17
F0.012499999999999999
sg18
F0.027741250991293476
sg19
F0.0677053499828159
sg20
F0.14397672711291465
sg21
F0.0
sg22
F0.14648173511461784
sg23
F0.053329215768253765
sg24
F0.009650038601371093
sg25
F0.09977912125556619
sg26
F0.5585301249239991
sg27
F0.03966343802375098
ssS'WROBEL BRUCE'
p150
(dp151
g3
F0.13363771966050086
sg4
F0.0
sg5
F0.0
sg6
I00
sg7
F1.0
sg8
F0.12290785764622973
sg9
F0.0
sg10
F0.9999999999999999
sg11
F0.21280397105980606
sg12
F0.0
sg13
F0.04157082040083719
sg14
F0.0
sg15
F0.06772862709145083
sg16
F0.0
sg17
F0.0
sg18
F0.0028330233969491967
sg19
F0.0677053499828159
sg20
F0.14397672711291465
sg21
F0.0
sg22
F0.0
sg23
F0.0
sg24
F0.0
sg25
F0.0
sg26
F0.5585301249239991
sg27
F0.004050554459854647
ssS'LINDHOLM TOD A'
p152
(dp153
g3
F0.13363771966050086
sg4
F0.03175281119155312
sg5
F0.2523441290768175
sg6
I00
sg7
F1.0
sg8
F0.12290785764622973
sg9
F0.03401073650930126
sg10
F0.9999999999999999
sg11
F0.21280397105980606
sg12
F0.0
sg13
F0.04157082040083719
sg14
F0.00025386764460730586
sg15
F0.06772862709145083
sg16
F0.0
sg17
F0.024999999999999998
sg18
F0.06239468811269247
sg19
F0.0677053499828159
sg20
F0.14397672711291465
sg21
F0.03487723021490623
sg22
F0.21278317006491743
sg23
F0.06393206161451037
sg24
F0.008457809489827774
sg25
F0.08687943549432879
sg26
F0.5585301249239991
sg27
F0.0742206969620463
ssS'MEYER JEROME J'
p154
(dp155
g3
F0.13363771966050086
sg4
F0.0
sg5
F0.009402744324912683
sg6
I00
sg7
F0.989057712249735
sg8
F0.12290785764622973
sg9
F0.0
sg10
F0.9999999999999999
sg11
F0.21280397105980606
sg12
F0.0
sg13
F0.04157082040083719
sg14
F0.0
sg15
F0.06772862709145083
sg16
F0.3066845817937521
sg17
F0.0
sg18
F0.0
sg19
F0.0677053499828159
sg20
F0.14397672711291465
sg21
F0.0
sg22
F0.0
sg23
F0.0
sg24
F2.077060930394096e-05
sg25
F0.0
sg26
F0.5585301249239991
sg27
F0.0
ssS'LAY KENNETH L'
p156
(dp157
g3
F0.279353299761463
sg4
F0.031571699971526326
sg5
F0.4363992428845574
sg6
I01
sg7
F0.9143929920961903
sg8
F0.23295454545454547
sg9
F0.6996494367627687
sg10
F0.9999999999999999
sg11
F0.4364921181373437
sg12
F1.0
sg13
F0.0016717748676511562
sg14
F1.0
sg15
F0.4444444444444444
sg16
F0.0
sg17
F0.875
sg18
F1.0
sg19
F0.026272577996715927
sg20
F0.13244344747573833
sg21
F0.9999999999999999
sg22
F0.9649613321118948
sg23
F0.05774844956795805
sg24
F1.0
sg25
F0.010168179432398946
sg26
F0.5554346901566164
sg27
F1.0
ssS'BUTTS ROBERT H'
p158
(dp159
g3
F0.13363771966050086
sg4
F0.0
sg5
F0.04113427433632187
sg6
I00
sg7
F0.9785982480240476
sg8
F0.12290785764622973
sg9
F0.03401073650930126
sg10
F0.9999999999999999
sg11
F0.21280397105980606
sg12
F0.0
sg13
F0.04157082040083719
sg14
F0.014542465348273106
sg15
F0.06772862709145083
sg16
F0.0
sg17
F0.09375
sg18
F0.008503733184866863
sg19
F0.0677053499828159
sg20
F0.14397672711291465
sg21
F0.028290723273358732
sg22
F0.23533328893920225
sg23
F0.5592108136579382
sg24
F0.012278722882344889
sg25
F0.22412415433562222
sg26
F0.5585301249239991
sg27
F0.0
ssS'OLSON CINDY K'
p160
(dp161
g3
F0.07467532467532466
sg4
F0.012092130219589574
sg5
F0.278851912241053
sg6
I00
sg7
F1.0
sg8
F0.03787878787878788
sg9
F0.019434706576743576
sg10
F0.9999999999999999
sg11
F0.15473817720601557
sg12
F0.0
sg13
F0.0027862914460852605
sg14
F9.38248481210271e-05
sg15
F0.28846153846153844
sg16
F0.0
sg17
F0.09375
sg18
F0.05308000121685818
sg19
F0.02463054187192118
sg20
F0.07772067280046005
sg21
F0.06569225727074413
sg22
F0.296131051474995
sg23
F0.24046398094905785
sg24
F0.012761294337465506
sg25
F0.12127288798281728
sg26
F0.7169501963953866
sg27
F0.047659709405834055
ssS'MCDONALD REBECCA'
p162
(dp163
g3
F0.0554598462761728
sg4
F0.0
sg5
F0.0
sg6
I00
sg7
F1.0
sg8
F0.10227272727272728
sg9
F0.0
sg10
F0.9999999999999999
sg11
F0.13009603188983512
sg12
F0.0
sg13
F6.965728615213149e-05
sg14
F0.0
sg15
F0.07692307692307693
sg16
F0.0
sg17
F0.0
sg18
F0.03444030367860544
sg19
F0.0016420361247947454
sg20
F0.2779166071683565
sg21
F0.0632762743896466
sg22
F0.0
sg23
F0.0
sg24
F0.0
sg25
F0.0
sg26
F0.8007910331432306
sg27
F0.022047645676722374
ssS'CUMBERLAND MICHAEL S'
p164
(dp165
g3
F0.13363771966050086
sg4
F0.0
sg5
F0.09767313770146396
sg6
I00
sg7
F1.0
sg8
F0.12290785764622973
sg9
F0.05344544308604483
sg10
F0.9999999999999999
sg11
F0.21280397105980606
sg12
F0.0
sg13
F0.04157082040083719
sg14
F6.882419414639128e-05
sg15
F0.06772862709145083
sg16
F0.0
sg17
F0.040625
sg18
F0.004234161468853704
sg19
F0.0677053499828159
sg20
F0.14397672711291465
sg21
F0.014086459182801105
sg22
F0.16638710362490078
sg23
F0.40293012451876437
sg24
F0.007801830967352358
sg25
F0.26348569446330367
sg26
F0.5585301249239991
sg27
F0.0
ssS'GAHN ROBERT S'
p166
(dp167
g3
F0.13363771966050086
sg4
F0.011377332157043967
sg5
F0.21891652059117953
sg6
I00
sg7
F0.9997026583258808
sg8
F0.12290785764622973
sg9
F0.0
sg10
F0.9999999999999999
sg11
F0.21280397105980606
sg12
F0.0
sg13
F0.04157082040083719
sg14
F0.007388899844773931
sg15
F0.06772862709145083
sg16
F0.0
sg17
F0.06373374999999999
sg18
F0.006487609325320151
sg19
F0.0677053499828159
sg20
F0.14397672711291465
sg21
F0.015944647003250437
sg22
F0.17278435790788457
sg23
F0.5267238487422119
sg24
F0.00869628041840524
sg25
F0.22799165360433352
sg26
F0.5585301249239991
sg27
F0.002423316334183291
ssS'MCCLELLAN GEORGE'
p168
(dp169
g3
F0.11178107606679034
sg4
F0.0
sg5
F1.0
sg6
I00
sg7
F0.9643304133734126
sg8
F0.09848484848484848
sg9
F0.0
sg10
F0.9999999999999999
sg11
F0.2658090233737996
sg12
F0.0
sg13
F0.002577319587628866
sg14
F0.0049795704115426186
sg15
F0.0
sg16
F0.0
sg17
F0.11249999999999999
sg18
F0.019300743118347317
sg19
F0.0
sg20
F0.13718768299824324
sg21
F0.029881123399523115
sg22
F0.23704036326397648
sg23
F0.5001020719670151
sg24
F0.012734314754762013
sg25
F0.16824007388961076
sg26
F0.8383862315545068
sg27
F0.014753678076965716
ssS'HERMANN ROBERT J'
p170
(dp171
g3
F0.13363771966050086
sg4
F0.0
sg5
F0.21138470819144706
sg6
I00
sg7
F0.9201001259564443
sg8
F0.12290785764622973
sg9
F0.029152059865115366
sg10
F0.9999999999999999
sg11
F0.21280397105980606
sg12
F0.0
sg13
F0.04157082040083719
sg14
F0.04019805923494717
sg15
F0.06772862709145083
sg16
F0.0
sg17
F0.0875
sg18
F0.013604783930499968
sg19
F0.0677053499828159
sg20
F0.14397672711291465
sg21
F0.03255940679978869
sg22
F0.2363654524871812
sg23
F0.44853885550010414
sg24
F0.012528617163226658
sg25
F0.19345369634218557
sg26
F0.5585301249239991
sg27
F0.005458772092451278
ssS'SCRIMSHAW MATTHEW'
p172
(dp173
g3
F0.13363771966050086
sg4
F0.0
sg5
F0.0
sg6
I00
sg7
F1.0
sg8
F0.12290785764622973
sg9
F0.0
sg10
F0.9999999999999999
sg11
F0.21280397105980606
sg12
F0.0
sg13
F0.04157082040083719
sg14
F0.0
sg15
F0.06772862709145083
sg16
F0.0
sg17
F0.0
sg18
F0.015466418114831746
sg19
F0.0677053499828159
sg20
F0.14397672711291465
sg21
F0.0
sg22
F0.0
sg23
F0.0
sg24
F0.0
sg25
F0.0
sg26
F0.5585301249239991
sg27
F0.02211332562253875
ssS'GATHMANN WILLIAM D'
p174
(dp175
g3
F0.13363771966050086
sg4
F0.0
sg5
F0.0
sg6
I00
sg7
F1.0
sg8
F0.12290785764622973
sg9
F0.0
sg10
F0.9721945563238867
sg11
F0.21280397105980606
sg12
F0.0
sg13
F0.04157082040083719
sg14
F0.0
sg15
F0.06772862709145083
sg16
F0.0
sg17
F0.0
sg18
F0.03961223600581534
sg19
F0.0677053499828159
sg20
F0.14397672711291465
sg21
F0.017885006964647822
sg22
F0.0
sg23
F0.0
sg24
F0.0
sg25
F0.0
sg26
F0.5585301249239991
sg27
F0.05105818078661284
ssS'HAEDICKE MARK E'
p176
(dp177
g3
F0.26186058839120063
sg4
F0.3356978927927381
sg5
F0.3329603126379703
sg6
I00
sg7
F0.733338736086721
sg8
F0.34090909090909094
sg9
F0.1911104097341449
sg10
F0.873362923259448
sg11
F0.33429969197318354
sg12
F0.0
sg13
F0.1343689049874617
sg14
F0.005056309870653952
sg15
F0.03142709943328181
sg16
F0.0
sg17
F0.14375
sg18
F0.01635293676381455
sg19
F0.10016420361247948
sg20
F0.20658306045440317
sg21
F0.03550872955366775
sg22
F0.3366679924913926
sg23
F0.310675057196483
sg24
F0.037264124311256586
sg25
F0.1161719763925972
sg26
F0.45009232425637213
sg27
F0.017722813393491816
ssS'BOWEN JR RAYMOND M'
p178
(dp179
g3
F0.11933474688576728
sg4
F0.0
sg5
F0.2881016597963832
sg6
I01
sg7
F0.9997622978747204
sg8
F0.26515151515151514
sg9
F0.1893509857477523
sg10
F0.9999999999999999
sg11
F0.2882768617503171
sg12
F0.0
sg13
F0.001044859292281973
sg14
F0.0001564712744899022
sg15
F0.5555555555555556
sg16
F0.0
sg17
F0.16874999999999998
sg18
F0.005132449596190827
sg19
F0.02463054187192118
sg20
F0.3466894166685753
sg21
F0.017074937334427876
sg22
F0.25070775643459936
sg23
F0.5819720123859188
sg24
F0.025778238085122473
sg25
F0.13804704141324428
sg26
F0.8537072377558947
sg27
F0.0
ssS'GILLIS JOHN'
p180
(dp181
g3
F0.13363771966050086
sg4
F0.0
sg5
F0.0
sg6
I00
sg7
F1.0
sg8
F0.12290785764622973
sg9
F0.0
sg10
F0.9999999999999999
sg11
F0.21280397105980606
sg12
F0.0
sg13
F0.04157082040083719
sg14
F0.0
sg15
F0.06772862709145083
sg16
F0.0
sg17
F0.0
sg18
F0.0017438579511113788
sg19
F0.0677053499828159
sg20
F0.14397672711291465
sg21
F0.005137486253271473
sg22
F0.0
sg23
F0.0
sg24
F0.0
sg25
F0.0
sg26
F0.5585301249239991
sg27
F0.00028539916171893266
ssS'FITZGERALD JAY L'
p182
(dp183
g3
F0.058242777630532726
sg4
F0.0
sg5
F0.1043437968552607
sg6
I00
sg7
F1.0
sg8
F0.001893939393939394
sg9
F0.10813781694605354
sg10
F0.9999999999999999
sg11
F0.13063960862475085
sg12
F0.0
sg13
F0.00027862914460852607
sg14
F0.02755033456956258
sg15
F0.5
sg16
F0.0
sg17
F0.04375
sg18
F0.033012287213227395
sg19
F0.013136288998357963
sg20
F0.004915666484815422
sg21
F0.06481471570945718
sg22
F0.17921760743229745
sg23
F0.14519397702886838
sg24
F0.013662223137120406
sg25
F0.09496252068269677
sg26
F0.76728037257809
sg27
F0.0193447528710521
ssS'MORAN MICHAEL P'
p184
(dp185
g3
F0.04075006626027034
sg4
F0.0
sg5
F0.0
sg6
I00
sg7
F1.0
sg8
F0.0
sg9
F0.0
sg10
F0.9999999999999999
sg11
F0.022649030621489402
sg12
F0.0
sg13
F0.00048760100306492065
sg14
F0.0
sg15
F0.0
sg16
F0.0
sg17
F0.0
sg18
F0.004502965766008354
sg19
F0.0
sg20
F0.0
sg21
F0.010947388558521806
sg22
F0.0
sg23
F0.0
sg24
F0.0
sg25
F0.0
sg26
F0.1736027646146259
sg27
F0.0017333857685997687
ssS'REDMOND BRIAN L'
p186
(dp187
g3
F0.10694407633183142
sg4
F0.0
sg5
F0.0642105585256357
sg6
I00
sg7
F1.0
sg8
F0.38636363636363635
sg9
F0.0
sg10
F0.9999999999999999
sg11
F0.19224497191520204
sg12
F0.0
sg13
F0.014558372805795488
sg14
F0.0
sg15
F0.22171945701357465
sg16
F0.0
sg17
F0.0
sg18
F0.16066608568611926
sg19
F0.08045977011494253
sg20
F0.5617097673707934
sg21
F0.025829352647467153
sg22
F0.08714447949981012
sg23
F0.0
sg24
F0.001076952712719308
sg25
F0.01752007418703895
sg26
F0.6286008747465391
sg27
F0.218614040183084
ssS'BAZELIDES PHILIP J'
p188
(dp189
g3
F0.13363771966050086
sg4
F0.10653416295964363
sg5
F0.0
sg6
I00
sg7
F1.0
sg8
F0.12290785764622973
sg9
F0.018220037415697103
sg10
F0.9999999999999999
sg11
F0.21280397105980606
sg12
F0.0
sg13
F0.04157082040083719
sg14
F8.436514121170544e-05
sg15
F0.06772862709145083
sg16
F0.0
sg17
F0.0
sg18
F0.03257256076848422
sg19
F0.0677053499828159
sg20
F0.14397672711291465
sg21
F0.0
sg22
F0.0727265855453909
sg23
F0.0
sg24
F0.008305694469667392
sg25
F0.047564626550356974
sg26
F0.5585301249239991
sg27
F0.04657107012661789
ssS'BELDEN TIMOTHY N'
p190
(dp191
g3
F0.5257089848926583
sg4
F0.3335951977519803
sg5
F0.07586454103154794
sg6
I01
sg7
F0.3338536337035931
sg8
F0.4318181818181818
sg9
F0.0
sg10
F0.9999999999999999
sg11
F1.0
sg12
F0.0
sg13
F0.032878239063806075
sg14
F0.020338176799798525
sg15
F0.2231404958677686
sg16
F0.0
sg17
F0.656249875
sg18
F0.02261664092653243
sg19
F0.17733990147783252
sg20
F0.1312780069067062
sg21
F0.010674181432022638
sg22
F0.1925736417645587
sg23
F1.0
sg24
F0.05312515446993989
sg25
F0.04685205287168714
sg26
F0.6843171809057993
sg27
F0.027749078384590085
ssS'DURAN WILLIAM D'
p192
(dp193
g3
F0.05612244897959183
sg4
F0.0
sg5
F0.11271490581956
sg6
I00
sg7
F1.0
sg8
F0.20075757575757577
sg9
F0.21479587533335381
sg10
F0.9999999999999999
sg11
F0.10817177024823338
sg12
F0.0
sg13
F0.0
sg14
F0.0001513553105491466
sg15
F0.25
sg16
F0.0
sg17
F0.09375
sg18
F0.03341289745049886
sg19
F0.0049261083743842365
sg20
F0.5395052720768218
sg21
F0.012806186065095239
sg22
F0.18959773517940928
sg23
F0.2529661763506412
sg24
F0.020213085980193102
sg25
F0.08168180761529456
sg26
F0.6555294874574535
sg27
F0.04226891722184077
ssS'THORN TERENCE H'
p194
(dp195
g3
F0.013848396501457725
sg4
F0.0025806792915501657
sg5
F0.20171531235383347
sg6
I00
sg7
F1.0
sg8
F0.0
sg9
F0.03886941315348715
sg10
F0.9999999999999999
sg11
F0.012864649393005979
sg12
F0.0
sg13
F0.002020061298411814
sg14
F0.04118148264303052
sg15
F0.0
sg16
F0.0
sg17
F0.0
sg18
F0.09810198224486633
sg19
F0.0
sg20
F0.0
sg21
F0.02474783720621766
sg22
F0.1998572788677337
sg23
F0.0
sg24
F0.00880122462199205
sg25
F0.05611886795758563
sg26
F0.2605489508515848
sg27
F0.12962694256591517
ssS'FASTOW ANDREW S'
p196
(dp197
g3
F0.13363771966050086
sg4
F0.0
sg5
F0.24444949576636085
sg6
I01
sg7
F0.6044799288662835
sg8
F0.12290785764622973
sg9
F0.3373971952608857
sg10
F0.9999999999999999
sg11
F0.21280397105980606
sg12
F0.0
sg13
F0.04157082040083719
sg14
F0.02678293997844924
sg15
F0.06772862709145083
sg16
F0.0
sg17
F0.1625
sg18
F0.03653856953760082
sg19
F0.0677053499828159
sg20
F0.14397672711291465
sg21
F0.12155867747969845
sg22
F0.3965757726828513
sg23
F0.38813377925361026
sg24
F0.023407568997361745
sg25
F0.15123603044390113
sg26
F0.5585301249239991
sg27
F0.0
ssS'FOY JOE'
p198
(dp199
g3
F0.0
sg4
F0.02827995686938987
sg5
F0.0
sg6
I00
sg7
F1.0
sg8
F0.0
sg9
F0.0
sg10
F0.9999999999999999
sg11
F0.0
sg12
F0.0
sg13
F6.965728615213149e-05
sg14
F0.0
sg15
F0.0
sg16
F0.0
sg17
F0.0
sg18
F0.006993147109234891
sg19
F0.0
sg20
F0.0
sg21
F0.0
sg22
F0.0
sg23
F0.0
sg24
F0.0017550730330254715
sg25
F0.0
sg26
F0.01700399655264219
sg27
F0.009998548985594198
ssS'CALGER CHRISTOPHER F'
p200
(dp201
g3
F0.1683673469387755
sg4
F0.0
sg5
F0.15657252265445026
sg6
I01
sg7
F0.9250938680841665
sg8
F0.3768939393939394
sg9
F0.07293923117078172
sg10
F0.9999999999999999
sg11
F0.3960862475086066
sg12
F0.0
sg13
F0.00919476177208136
sg14
F4.691242406051355e-05
sg15
F0.1736111111111111
sg16
F0.0
sg17
F0.15625
sg18
F0.0025662146168857645
sg19
F0.041050903119868636
sg20
F0.35242944654644326
sg21
F0.0085374347957626
sg22
F0.21614152609025086
sg23
F0.8918282287385612
sg24
F0.015829473510052303
sg25
F0.19697015074390925
sg26
F0.8382537318087891
sg27
F0.0
ssS'RICE KENNETH D'
p202
(dp203
g3
F0.05618870924993374
sg4
F0.0
sg5
F0.20523423805423083
sg6
I01
sg7
F0.0
sg8
F0.07954545454545454
sg9
F0.31426134316366705
sg10
F0.9999999999999999
sg11
F0.1561877151657909
sg12
F0.0
sg13
F0.00041794371691278906
sg14
F0.016876792819580513
sg15
F0.2222222222222222
sg16
F0.0
sg17
F0.21875
sg18
F0.459020631162508
sg19
F0.006568144499178982
sg20
F0.21353003408957333
sg21
F0.18618215497489649
sg22
F0.3785223593440947
sg23
F0.09563308710935188
sg24
F0.004876892714530628
sg25
F0.026421207816799266
sg26
F0.9527362437451756
sg27
F0.5762767471098494
ssS'KAMINSKI WINCENTY J'
p204
(dp205
g3
F0.3014842300556586
sg4
F0.0
sg5
F0.36537814244436384
sg6
I00
sg7
F1.0
sg8
F0.07765151515151515
sg9
F0.06286466797552938
sg10
F0.9999999999999999
sg11
F0.10527269432868273
sg12
F0.0
sg13
F1.0
sg14
F0.00045068746489411064
sg15
F0.011901447661469933
sg16
F0.0
sg17
F0.049999999999999996
sg18
F0.019874474644491505
sg19
F0.28078817733990147
sg20
F0.0409471710486817
sg21
F0.0085374347957626
sg22
F0.24755817280955458
sg23
F0.24422284439466746
sg24
F0.010494623140082947
sg25
F0.19306100571623058
sg26
F0.11006641845735568
sg27
F0.024746724620290723
ssS'LOCKHART EUGENE E'
p206
(dp207
g3
F0.13363771966050086
sg4
F0.0
sg5
F0.0
sg6
I00
sg7
F1.0
sg8
F0.12290785764622973
sg9
F0.0
sg10
F0.9999999999999999
sg11
F0.21280397105980606
sg12
F0.0
sg13
F0.04157082040083719
sg14
F0.0
sg15
F0.06772862709145083
sg16
F0.0
sg17
F0.0
sg18
F0.0
sg19
F0.0677053499828159
sg20
F0.14397672711291465
sg21
F0.0
sg22
F0.0
sg23
F0.0
sg24
F0.0
sg25
F0.0
sg26
F0.5585301249239991
sg27
F0.0
ssS'COX DAVID'
p208
(dp209
g3
F0.0029817121653856345
sg4
F0.0
sg5
F0.12178979992393876
sg6
I00
sg7
F0.9882290364132261
sg8
F0.0
sg9
F0.0
sg10
F0.9999999999999999
sg11
F0.012502264903062148
sg12
F0.0
sg13
F0.0014628030091947616
sg14
F4.768464503270307e-05
sg15
F0.12121212121212122
sg16
F0.0
sg17
F0.09999999999999999
sg18
F0.010092286963991382
sg19
F0.006568144499178982
sg20
F0.0
sg21
F0.025612372130190478
sg22
F0.28282181095659154
sg23
F0.6309190311770689
sg24
F0.010635334120453485
sg25
F0.2848967805257076
sg26
F0.6895841028657369
sg27
F0.0034223152972786145
ssS'OVERDYKE JR JERE C'
p210
(dp211
g3
F0.13363771966050086
sg4
F0.0
sg5
F0.08232974738047674
sg6
I00
sg7
F1.0
sg8
F0.12290785764622973
sg9
F0.026399328025585405
sg10
F0.9999999999999999
sg11
F0.21280397105980606
sg12
F0.0
sg13
F0.04157082040083719
sg14
F1.6988861388169517e-05
sg15
F0.06772862709145083
sg16
F0.0
sg17
F0.0
sg18
F0.14880029308851841
sg19
F0.0677053499828159
sg20
F0.14397672711291465
sg21
F0.1382643482516302
sg22
F0.08543560541296441
sg23
F0.0
sg24
F0.00241200752496676
sg25
F0.01818671299321032
sg26
F0.5585301249239991
sg27
F0.15332826138196196
ssS'PEREIRA PAULO V. FERRAZ'
p212
(dp213
g3
F0.13363771966050086
sg4
F0.0
sg5
F0.12214387816211539
sg6
I00
sg7
F0.9711076348324642
sg8
F0.12290785764622973
sg9
F0.0
sg10
F0.9999999999999999
sg11
F0.21280397105980606
sg12
F0.0
sg13
F0.04157082040083719
sg14
F0.0
sg15
F0.06772862709145083
sg16
F0.8097797399107443
sg17
F0.0
sg18
F0.0
sg19
F0.0677053499828159
sg20
F0.14397672711291465
sg21
F0.0
sg22
F0.0
sg23
F0.0
sg24
F0.0002698151395493809
sg25
F0.0
sg26
F0.5585301249239991
sg27
F0.0
ssS'STABLER FRANK'
p214
(dp215
g3
F0.13363771966050086
sg4
F0.0
sg5
F0.07218824722529431
sg6
I00
sg7
F1.0
sg8
F0.12290785764622973
sg9
F0.0
sg10
F0.9999999999999999
sg11
F0.21280397105980606
sg12
F0.0
sg13
F0.04157082040083719
sg14
F0.03437068672356198
sg15
F0.06772862709145083
sg16
F0.0
sg17
F0.0625
sg18
F0.010420142277110618
sg19
F0.0677053499828159
sg20
F0.14397672711291465
sg21
F0.03466634655887054
sg22
F0.21552330781870635
sg23
F0.3878175675938842
sg24
F0.010738598135282097
sg25
F0.21352204471342284
sg26
F0.5585301249239991
sg27
F0.0
ssS'SKILLING JEFFREY K'
p216
(dp217
g3
F0.23654916512059368
sg4
F0.0
sg5
F0.1282375209277724
sg6
I01
sg7
F1.0
sg8
F0.16666666666666669
sg9
F0.37314636627347664
sg10
F0.9999999999999999
sg11
F0.36963217974270696
sg12
F0.0
sg13
F0.006687099470604626
sg14
F0.0021353840433470796
sg15
F0.2777777777777778
sg16
F0.0
sg17
F0.7
sg18
F0.5313302902919438
sg19
F0.04926108374384236
sg20
F0.11163320017129215
sg21
F0.46361020625410604
sg22
F1.0
sg23
F0.20281458433210858
sg24
F0.08384253915996143
sg25
F0.0462596302019653
sg26
F0.5541720776699927
sg27
F0.5604339348249978
ssS'BLAKE JR. NORMAN P'
p218
(dp219
g3
F0.13363771966050086
sg4
F0.0
sg5
F0.005590939094171698
sg6
I00
sg7
F0.9675309740422431
sg8
F0.12290785764622973
sg9
F0.0
sg10
F0.9999999999999999
sg11
F0.21280397105980606
sg12
F0.0
sg13
F0.04157082040083719
sg14
F0.0
sg15
F0.06772862709145083
sg16
F0.9100244733432507
sg17
F0.0
sg18
F0.0
sg19
F0.0677053499828159
sg20
F0.14397672711291465
sg21
F0.0
sg22
F0.0
sg23
F0.0
sg24
F1.2350352998484652e-05
sg25
F0.0
sg26
F0.5585301249239991
sg27
F0.0
ssS'SHERRICK JEFFREY B'
p220
(dp221
g3
F0.036840710310098064
sg4
F0.0
sg5
F0.0
sg6
I00
sg7
F1.0
sg8
F0.07386363636363637
sg9
F0.0
sg10
F0.9999999999999999
sg11
F0.10527269432868273
sg12
F0.0
sg13
F0.0009055447199777098
sg14
F0.0
sg15
F0.72
sg16
F0.0
sg17
F0.0
sg18
F0.037313481766410556
sg19
F0.029556650246305417
sg20
F0.29272673631599044
sg21
F0.02750355074424385
sg22
F0.0
sg23
F0.0
sg24
F0.0
sg25
F0.0
sg26
F0.9490367226762231
sg27
F0.04152943556238337
ssS'PRENTICE JAMES'
p222
(dp223
g3
F0.13363771966050086
sg4
F0.0878090676973202
sg5
F0.0
sg6
I00
sg7
F1.0
sg8
F0.12290785764622973
sg9
F0.0
sg10
F0.9999999999999999
sg11
F0.21280397105980606
sg12
F0.0
sg13
F0.04157082040083719
sg14
F0.0
sg15
F0.06772862709145083
sg16
F0.0
sg17
F0.0
sg18
F0.022297663628227184
sg19
F0.0677053499828159
sg20
F0.14397672711291465
sg21
F0.014145327765228028
sg22
F0.0
sg23
F0.0
sg24
F0.005449489455816119
sg25
F0.0
sg26
F0.5585301249239991
sg27
F0.025801242934747674
ssS'GRAY RODNEY'
p224
(dp225
g3
F0.13363771966050086
sg4
F0.014561248733855194
sg5
F0.0
sg6
I00
sg7
F1.0
sg8
F0.12290785764622973
sg9
F0.0710581459212187
sg10
F0.9999999999999999
sg11
F0.21280397105980606
sg12
F0.0
sg13
F0.04157082040083719
sg14
F0.06571919014483872
sg15
F0.06772862709145083
sg16
F0.0
sg17
F0.0
sg18
F0.0
sg19
F0.0677053499828159
sg20
F0.14397672711291465
sg21
F0.0
sg22
F0.005952713051334614
sg23
F0.0
sg24
F0.011072424604015961
sg25
F0.008351561277504655
sg26
F0.5585301249239991
sg27
F0.0
ssS'PICKERING MARK R'
p226
(dp227
g3
F0.055724887357540415
sg4
F0.0
sg5
F0.13836590707413352
sg6
I00
sg7
F1.0
sg8
F0.013257575757575758
sg9
F0.0
sg10
F0.9999999999999999
sg11
F0.13154556984961044
sg12
F0.004906470407850352
sg13
F0.003831150738367233
sg14
F0.0
sg15
F0.0
sg16
F0.0
sg17
F0.0375
sg18
F0.0005863969509476242
sg19
F0.0
sg20
F0.03586575368431029
sg21
F0.0
sg22
F0.5894553739995573
sg23
F0.26693817697975625
sg24
F0.013390235339694044
sg25
F0.6699329966161789
sg26
F0.806205629030588
sg27
F0.0008384091664981968
ssS'THE TRAVEL AGENCY IN THE PARK'
p228
(dp229
g3
F0.13363771966050086
sg4
F0.0
sg5
F0.0
sg6
I00
sg7
F1.0
sg8
F0.12290785764622973
sg9
F0.0
sg10
F0.9999999999999999
sg11
F0.21280397105980606
sg12
F0.0
sg13
F0.04157082040083719
sg14
F0.03495226564324221
sg15
F0.06772862709145083
sg16
F0.0
sg17
F0.0
sg18
F0.0
sg19
F0.0677053499828159
sg20
F0.14397672711291465
sg21
F0.0
sg22
F0.0
sg23
F0.0
sg24
F0.0034964921183262697
sg25
F0.0
sg26
F0.5585301249239991
sg27
F0.0
ssS'NOLES JAMES L'
p230
(dp231
g3
F0.13363771966050086
sg4
F0.12049201881440612
sg5
F0.0
sg6
I00
sg7
F1.0
sg8
F0.12290785764622973
sg9
F0.0
sg10
F0.9636950036283494
sg11
F0.21280397105980606
sg12
F0.0
sg13
F0.04157082040083719
sg14
F0.0
sg15
F0.06772862709145083
sg16
F0.0
sg17
F0.0
sg18
F0.007507725807318001
sg19
F0.0677053499828159
sg20
F0.14397672711291465
sg21
F0.03138264483737435
sg22
F0.0
sg23
F0.0
sg24
F0.007477815255965217
sg25
F0.0
sg26
F0.5585301249239991
sg27
F0.0
ssS'KEAN STEVEN J'
p232
(dp233
g3
F0.8413066525311422
sg4
F0.0
sg5
F0.1833906706941245
sg6
I00
sg7
F1.0
sg8
F0.26515151515151514
sg9
F0.05830411973023073
sg10
F0.9999999999999999
sg11
F0.6589961949628556
sg12
F0.0
sg13
F0.4699777096684314
sg14
F0.00011882550209566293
sg15
F0.05725699067909454
sg16
F0.0
sg17
F0.125
sg18
F0.12530303861459963
sg19
F0.6354679802955665
sg20
F0.050505640283065145
sg21
F0.27988617024577256
sg22
F0.3638560982238148
sg23
F0.1594059585215213
sg24
F0.016874521948880294
sg25
F0.07408413443280493
sg26
F0.271625983560143
sg27
F0.05886879569065025
ssS'FOWLER PEGGY'
p234
(dp235
g3
F0.030479724357275376
sg4
F0.0
sg5
F0.0
sg6
I00
sg7
F1.0
sg8
F0.0
sg9
F0.0
sg10
F0.9999999999999999
sg11
F0.0014495379597753216
sg12
F0.0
sg13
F0.0016717748676511562
sg14
F0.0
sg15
F0.0
sg16
F0.0
sg17
F0.0
sg18
F0.03837802904731693
sg19
F0.0
sg20
F0.0
sg21
F0.03794754179296766
sg22
F0.0
sg23
F0.0
sg24
F0.0
sg25
F0.0
sg26
F0.000982567819354789
sg27
F0.03856303691026629
ssS'WASAFF GEORGE'
p236
(dp237
g3
F0.022727272727272724
sg4
F0.12934499664695293
sg5
F0.0
sg6
I00
sg7
F0.8335443070483673
sg8
F0.04166666666666667
sg9
F0.03886941315348715
sg10
F0.9999999999999999
sg11
F0.060699402065591594
sg12
F0.0
sg13
F0.001253831150738367
sg14
F0.00013755186067125887
sg15
F0.23333333333333334
sg16
F0.0
sg17
F0.040625
sg18
F0.04187382883000104
sg19
F0.011494252873563218
sg20
F0.2530585106382979
sg21
F0.02629555930369509
sg22
F0.23396546976489707
sg23
F0.1324356762628565
sg24
F0.009988384198489079
sg25
F0.12177675592867891
sg26
F0.8385729349250151
sg27
F0.0485688060317481
ssS'WHITE JR THOMAS E'
p238
(dp239
g3
F0.13363771966050086
sg4
F0.0
sg5
F0.35562131988127454
sg6
I00
sg7
F1.0
sg8
F0.12290785764622973
sg9
F0.0
sg10
F0.9999999999999999
sg11
F0.21280397105980606
sg12
F0.0
sg13
F0.04157082040083719
sg14
F0.10477716164196958
sg15
F0.06772862709145083
sg16
F0.0
sg17
F0.056249999999999994
sg18
F0.30837098242849464
sg19
F0.0677053499828159
sg20
F0.14397672711291465
sg21
F0.9380409863529212
sg22
F0.2857509237278832
sg23
F0.03318630305580331
sg24
F0.01867866808115385
sg25
F0.026916897827308325
sg26
F0.5585301249239991
sg27
F0.0377615727132898
ssS'CHRISTODOULOU DIOMEDES'
p240
(dp241
g3
F0.13363771966050086
sg4
F0.0
sg5
F0.0
sg6
I00
sg7
F1.0
sg8
F0.12290785764622973
sg9
F0.0
sg10
F0.9999999999999999
sg11
F0.21280397105980606
sg12
F0.0
sg13
F0.04157082040083719
sg14
F0.0
sg15
F0.06772862709145083
sg16
F0.0
sg17
F0.0
sg18
F0.123760442815831
sg19
F0.0677053499828159
sg20
F0.14397672711291465
sg21
F0.06440520986277048
sg22
F0.0
sg23
F0.0
sg24
F0.0
sg25
F0.0
sg26
F0.5585301249239991
sg27
F0.1492691766809175
ssS'ALLEN PHILLIP K'
p242
(dp243
g3
F0.188510469122714
sg4
F0.446510263747104
sg5
F0.06062169144485778
sg6
I00
sg7
F0.12080033420975878
sg8
F0.08901515151515152
sg9
F0.05923795738124326
sg10
F0.95161163989879
sg11
F0.2545751041855408
sg12
F0.0
sg13
F0.1520618556701031
sg14
F1.4672198471600946e-05
sg15
F0.029612756264236904
sg16
F0.0
sg17
F0.521875
sg18
F0.03521763903531165
sg19
F0.10673234811165845
sg20
F0.07451757408683668
sg21
F0.0085374347957626
sg22
F0.18173547457026182
sg23
F0.8462175857373126
sg24
F0.04330292548962511
sg25
F0.0470496370941338
sg26
F0.4746399584835324
sg27
F0.05035290743226814
ssS'SHARP VICTORIA T'
p244
(dp245
g3
F0.2040153723827193
sg4
F0.02916902002337019
sg5
F0.5085481480833877
sg6
I00
sg7
F1.0
sg8
F0.045454545454545456
sg9
F0.08204516859024914
sg10
F0.9999999999999999
sg11
F0.4484508063054901
sg12
F0.0
sg13
F0.008637503482864309
sg14
F0.00023176281927838073
sg15
F0.04411764705882353
sg16
F0.0
sg17
F0.075
sg18
F0.010061804422302078
sg19
F0.009852216748768473
sg20
F0.0352122231871472
sg21
F0.014433506073218966
sg22
F0.2233018794915312
sg23
F0.3649562540179192
sg24
F0.015223195743544988
sg25
F0.17348939810594766
sg26
F0.7850096668768392
sg27
F0.008183005057821643
ssS'JAEDICKE ROBERT'
p246
(dp247
g3
F0.13363771966050086
sg4
F0.0
sg5
F0.0
sg6
I00
sg7
F0.9928660826746826
sg8
F0.12290785764622973
sg9
F0.0
sg10
F0.9830703899803799
sg11
F0.21280397105980606
sg12
F0.0
sg13
F0.04157082040083719
sg14
F0.0
sg15
F0.06772862709145083
sg16
F0.8697634243485771
sg17
F0.0
sg18
F0.008791474531968775
sg19
F0.0677053499828159
sg20
F0.14397672711291465
sg21
F0.0029869878077678617
sg22
F0.0
sg23
F0.0
sg24
F0.0008087115430985846
sg25
F0.0
sg26
F0.5585301249239991
sg27
F0.012569732538217809
ssS'WINOKUR JR. HERBERT S'
p248
(dp249
g3
F0.13363771966050086
sg4
F0.0
sg5
F0.006176698154858959
sg6
I00
sg7
F0.9928660826746826
sg8
F0.12290785764622973
sg9
F0.0
sg10
F0.9999999999999999
sg11
F0.21280397105980606
sg12
F0.0
sg13
F0.04157082040083719
sg14
F0.0
sg15
F0.06772862709145083
sg16
F0.8683957963433946
sg17
F0.0
sg18
F0.0
sg19
F0.0677053499828159
sg20
F0.14397672711291465
sg21
F0.0
sg22
F0.0
sg23
F0.0
sg24
F0.0008207046145795212
sg25
F0.0
sg26
F0.5585301249239991
sg27
F0.0
ssS'BROWN MICHAEL'
p250
(dp251
g3
F0.09468592631857936
sg4
F0.0
sg5
F0.2154544222623414
sg6
I00
sg7
F1.0
sg8
F0.02462121212121212
sg9
F0.0
sg10
F0.9999999999999999
sg11
F0.13752491393368363
sg12
F0.0
sg13
F0.002020061298411814
sg14
F0.0
sg15
F0.024390243902439025
sg16
F0.0
sg17
F0.0
sg18
F0.0
sg19
F0.0016420361247947454
sg20
F0.0402515678245182
sg21
F0.0
sg22
F0.0
sg23
F0.0
sg24
F0.0004759376064029019
sg25
F0.0
sg26
F0.5023931938012483
sg27
F0.0
ssS'BADUM JAMES P'
p252
(dp253
g3
F0.13363771966050086
sg4
F0.027848183986594034
sg5
F0.015238478250416371
sg6
I00
sg7
F1.0
sg8
F0.12290785764622973
sg9
F0.0
sg10
F0.9999999999999999
sg11
F0.21280397105980606
sg12
F0.0
sg13
F0.04157082040083719
sg14
F0.0
sg15
F0.06772862709145083
sg16
F0.0
sg17
F0.0
sg18
F0.005249777856186667
sg19
F0.0677053499828159
sg20
F0.14397672711291465
sg21
F0.0
sg22
F0.0
sg23
F0.0
sg24
F0.0017619386319167323
sg25
F0.0
sg26
F0.5585301249239991
sg27
F0.007505942637650726
ssS'HUGHES JAMES A'
p254
(dp255
g3
F0.04386429896633978
sg4
F0.0
sg5
F0.0
sg6
I00
sg7
F1.0
sg8
F0.06628787878787878
sg9
F0.0
sg10
F0.9999999999999999
sg11
F0.10635984779851422
sg12
F0.0
sg13
F0.0015324602953468935
sg14
F0.0
sg15
F0.14705882352941177
sg16
F0.0
sg17
F0.0
sg18
F0.022773207568515773
sg19
F0.008210180623973728
sg20
F0.2239738999201018
sg21
F0.024619667634351448
sg22
F0.0
sg23
F0.0
sg24
F0.0
sg25
F0.0
sg26
F0.8148576144305216
sg27
F0.02197966576826438
ssS'REYNOLDS LAWRENCE'
p256
(dp257
g3
F0.13363771966050086
sg4
F0.007992077162092985
sg5
F0.036758566726262557
sg6
I00
sg7
F0.9429286613974602
sg8
F0.12290785764622973
sg9
F0.03036672902616184
sg10
F0.946145310598236
sg11
F0.21280397105980606
sg12
F0.0
sg13
F0.04157082040083719
sg14
F0.019503598984104698
sg15
F0.06772862709145083
sg16
F0.0
sg17
F0.012499999999999999
sg18
F0.08596791477301258
sg19
F0.0677053499828159
sg20
F0.14397672711291465
sg21
F0.01364904326021119
sg22
F0.06875001124851295
sg23
F0.02728320546628533
sg24
F0.0038091520712097214
sg25
F0.023958474899947093
sg26
F0.5585301249239991
sg27
F0.12113152106369837
ssS'DIMICHELE RICHARD G'
p258
(dp259
g3
F0.13363771966050086
sg4
F0.0
sg5
F0.15654629463680753
sg6
I00
sg7
F1.0
sg8
F0.12290785764622973
sg9
F0.13504439081329195
sg10
F0.9999999999999999
sg11
F0.21280397105980606
sg12
F0.0
sg13
F0.04157082040083719
sg14
F0.036167837981090044
sg15
F0.06772862709145083
sg16
F0.0
sg17
F0.125
sg18
F0.16937016471446045
sg19
F0.0677053499828159
sg20
F0.14397672711291465
sg21
F0.0085374347957626
sg22
F0.23647793761664707
sg23
F0.11786454405579161
sg24
F0.022867475217915895
sg25
F0.03560121432559348
sg26
F0.5585301249239991
sg27
F0.23849025910505717
ssS'BHATNAGAR SANJAY'
p260
(dp261
g3
F0.03087728597932679
sg4
F0.0
sg5
F0.6026499040491688
sg6
I00
sg7
F1.0
sg8
F0.0
sg9
F0.0
sg10
F0.0
sg11
F0.0835296249320529
sg12
F0.0
sg13
F0.0011841738645862357
sg14
F0.0
sg15
F0.034482758620689655
sg16
F0.0
sg17
F0.0
sg18
F0.3147274577735348
sg19
F0.0016420361247947454
sg20
F0.0
sg21
F0.17643571259504498
sg22
F0.0
sg23
F0.0
sg24
F0.001331250246898427
sg25
F0.0
sg26
F0.8821002108408688
sg27
F0.44998594402578007
ssS'CARTER REBECCA C'
p262
(dp263
g3
F0.016896368937185262
sg4
F0.0
sg5
F0.0
sg6
I00
sg7
F0.9544022833101148
sg8
F0.054924242424242424
sg9
F0.014576029932557683
sg10
F0.8820110655061066
sg11
F0.03515129552455155
sg12
F0.0
sg13
F0.00020897185845639447
sg14
F5.2124915622792834e-05
sg15
F0.4666666666666667
sg16
F0.0
sg17
F0.0375
sg18
F0.0
sg19
F0.011494252873563218
sg20
F0.42766298417894166
sg21
F0.020817461735760136
sg22
F0.23559695408267026
sg23
F0.7912098163291945
sg24
F0.0046114132344779795
sg25
F0.7936537733545467
sg26
F0.620520752010312
sg27
F0.0
ssS'BUCHANAN HAROLD G'
p264
(dp265
g3
F0.06831433872250198
sg4
F0.0
sg5
F0.0026228017642713204
sg6
I00
sg7
F1.0
sg8
F0.0
sg9
F0.05923795738124326
sg10
F0.9999999999999999
sg11
F0.003805037144410219
sg12
F0.0
sg13
F0.007871273335190861
sg14
F0.00011728106015128387
sg15
F0.0
sg16
F0.0
sg17
F0.0625
sg18
F0.02065777619005207
sg19
F0.0
sg20
F0.0
sg21
F0.012806186065095239
sg22
F0.22318579483792242
sg23
F0.30435142219715644
sg24
F0.010183846157359545
sg25
F0.1735253314482796
sg26
F0.0028114274669467677
sg27
F0.024032105848123743
ssS'YEAP SOON'
p266
(dp267
g3
F0.13363771966050086
sg4
F0.0
sg5
F0.24084751467676155
sg6
I00
sg7
F1.0
sg8
F0.12290785764622973
sg9
F0.0
sg10
F0.9999999999999999
sg11
F0.21280397105980606
sg12
F0.0
sg13
F0.04157082040083719
sg14
F0.0
sg15
F0.06772862709145083
sg16
F0.0
sg17
F0.0
sg18
F0.0039250192190694545
sg19
F0.0677053499828159
sg20
F0.14397672711291465
sg21
F0.0
sg22
F0.0
sg23
F0.0
sg24
F0.0005320308046579429
sg25
F0.0
sg26
F0.5585301249239991
sg27
F0.005611850618649192
ssS'MURRAY JULIA H'
p268
(dp269
g3
F0.1414656771799629
sg4
F0.0
sg5
F0.25170154264457106
sg6
I00
sg7
F1.0
sg8
F0.020833333333333336
sg9
F0.02429338322092947
sg10
F0.9999999999999999
sg11
F0.07120855227396268
sg12
F0.0
sg13
F0.00229869044302034
sg14
F3.1854115102817845e-05
sg15
F0.044444444444444446
sg16
F0.0
sg17
F0.049999999999999996
sg18
F0.012165751396281635
sg19
F0.003284072249589491
sg20
F0.023089280167727908
sg21
F0.013344200198161538
sg22
F0.20632832339564708
sg23
F0.3573903177318528
sg24
F0.007842754185497455
sg25
F0.2354684052017278
sg26
F0.1646613271826289
sg27
F0.011659296693550415
ssS'GARLAND C KEVIN'
p270
(dp271
g3
F0.010071561091969255
sg4
F0.0
sg5
F0.21159453233258876
sg6
I00
sg7
F1.0
sg8
F0.01893939393939394
sg9
F0.07293923117078172
sg10
F0.9999999999999999
sg11
F0.03188983511505707
sg12
F0.0
sg13
F0.0022290331568682086
sg14
F0.00587023077534171
sg15
F0.6136363636363636
sg16
F0.0
sg17
F0.10625
sg18
F0.018247843141279474
sg19
F0.04433497536945813
sg20
F0.22014659472666193
sg21
F0.017606854606253185
sg22
F0.20872380671275256
sg23
F0.4347271841668663
sg24
F0.015126227608431004
sg25
F0.1363517955212256
sg26
F0.8479084384445131
sg27
F0.01852331684658003
ssS'DODSON KEITH'
p272
(dp273
g3
F0.007884972170686457
sg4
F0.0
sg5
F0.12311431481489578
sg6
I00
sg7
F1.0
sg8
F0.01893939393939394
sg9
F0.0
sg10
F0.9999999999999999
sg11
F0.020293531436854504
sg12
F0.0
sg13
F0.0001393145723042631
sg14
F7.47123790593364e-05
sg15
F0.21428571428571427
sg16
F0.0
sg17
F0.008749999999999999
sg18
F0.0
sg19
F0.0049261083743842365
sg20
F0.26142408123791105
sg21
F0.0
sg22
F0.19887640853879116
sg23
F0.27556481807552524
sg24
F0.0030894325947522895
sg25
F1.0
sg26
F0.6403851855013041
sg27
F0.0
ssS'YEAGER F SCOTT'
p274
(dp275
g3
F0.13363771966050086
sg4
F0.0
sg5
F0.2358204779619082
sg6
I01
sg7
F1.0
sg8
F0.12290785764622973
sg9
F0.0
sg10
F0.9999999999999999
sg11
F0.21280397105980606
sg12
F0.0
sg13
F0.04157082040083719
sg14
F0.014281261604429999
sg15
F0.06772862709145083
sg16
F0.0
sg17
F0.0
sg18
F0.24200242565283647
sg19
F0.0677053499828159
sg20
F0.14397672711291465
sg21
F0.2422625750134097
sg22
F0.14254385570227615
sg23
F0.0
sg24
F0.0034791494803393433
sg25
F0.018727261927107077
sg26
F0.5585301249239991
sg27
F0.24189062286016133
ssS'HIRKO JOSEPH'
p276
(dp277
g3
F0.13363771966050086
sg4
F0.0015962371187756633
sg5
F0.34086805995724834
sg6
I01
sg7
F1.0
sg8
F0.12290785764622973
sg9
F0.0
sg10
F0.9999999999999999
sg11
F0.21280397105980606
sg12
F0.0
sg13
F0.04157082040083719
sg14
F0.00027568288707165986
sg15
F0.06772862709145083
sg16
F0.0
sg17
F0.0
sg18
F0.6264714953211844
sg19
F0.0677053499828159
sg20
F0.14397672711291465
sg21
F0.0
sg22
F0.0
sg23
F0.0
sg24
F0.0008796174399460223
sg25
F0.0
sg26
F0.5585301249239991
sg27
F0.8957063016414396
ssS'DIETRICH JANET R'
p278
(dp279
g3
F0.16664457990988601
sg4
F0.0
sg5
F0.01519039355140473
sg6
I00
sg7
F1.0
sg8
F0.5776515151515151
sg9
F0.10813781694605354
sg10
F0.9999999999999999
sg11
F0.3442652654466389
sg12
F0.0
sg13
F0.0035525215937587075
sg14
F4.565756498070558e-05
sg15
F0.2222222222222222
sg16
F0.0
sg17
F0.075
sg18
F0.037977683521496344
sg19
F0.022988505747126436
sg20
F0.5456160451341783
sg21
F0.021343620860857837
sg22
F0.22506024703534191
sg23
F0.2307079244113257
sg24
F0.013619803199104502
sg25
F0.11053531541144448
sg26
F0.7337693716072482
sg27
F0.04512640245316927
ssS'DERRICK JR. JAMES V'
p280
(dp281
g3
F0.14073681420620193
sg4
F0.0
sg5
F0.22348019566101163
sg6
I00
sg7
F0.6336020061716945
sg8
F0.12121212121212122
sg9
F0.09406397983143891
sg10
F0.3137312871233907
sg11
F0.25348795071570934
sg12
F0.0
sg13
F0.062482585678461974
sg14
F0.0007222196642402519
sg15
F0.022002200220022004
sg16
F0.0
sg17
F0.09999999999999999
sg18
F0.1798391157106287
sg19
F0.03284072249589491
sg20
F0.1350151696957281
sg21
F0.12108230938806887
sg22
F0.44307892496611945
sg23
F0.10738628153367073
sg24
F0.00532041426540897
sg25
F0.0759680384242188
sg26
F0.6349297968296213
sg27
F0.2571274677725741
ssS'FREVERT MARK A'
p282
(dp283
g3
F0.21322554996024382
sg4
F1.0
sg5
F0.38024942844778226
sg6
I00
sg7
F0.03920087570261943
sg8
F0.45833333333333337
sg9
F0.31426134316366705
sg10
F0.9999999999999999
sg11
F0.5394093132813915
sg12
F0.024532352039251762
sg13
F0.0006269155753691836
sg14
F0.7169705887094151
sg15
F0.2857142857142857
sg16
F0.0
sg17
F0.25
sg18
F0.29774306202486583
sg19
F0.009852216748768473
sg20
F0.33998700665908727
sg21
F0.283752460930297
sg22
F0.9547125869959991
sg23
F0.0790276945758252
sg24
F0.16659486756602535
sg25
F0.04818512249714133
sg26
F0.9068680658357466
sg27
F0.3037557167172697
ssS'PAI LOU L'
p284
(dp285
g3
F0.13363771966050086
sg4
F0.0
sg5
F0.140088213566005
sg6
I00
sg7
F1.0
sg8
F0.12290785764622973
sg9
F0.0
sg10
F0.9999999999999999
sg11
F0.21280397105980606
sg12
F0.0
sg13
F0.04157082040083719
sg14
F0.17659313288986614
sg15
F0.06772862709145083
sg16
F0.0
sg17
F0.125
sg18
F0.4849906774735727
sg19
F0.0677053499828159
sg20
F0.14397672711291465
sg21
F0.572682444169348
sg22
F0.23565994575517116
sg23
F0.04674948918991948
sg24
F0.03016018967901954
sg25
F0.014071929324474161
sg26
F0.5585301249239991
sg27
F0.4473039255645913
ssS'BAY FRANKLIN R'
p286
(dp287
g3
F0.13363771966050086
sg4
F0.04052519141931137
sg5
F0.5645231090692114
sg6
I00
sg7
F0.9424603910642264
sg8
F0.12290785764622973
sg9
F0.0
sg10
F0.9682156583438599
sg11
F0.21280397105980606
sg12
F0.0
sg13
F0.04157082040083719
sg14
F6.66040588513464e-06
sg15
F0.06772862709145083
sg16
F0.0
sg17
F0.049999999999999996
sg18
F0.0012831174896525313
sg19
F0.0677053499828159
sg20
F0.14397672711291465
sg21
F0.009876644238798067
sg22
F0.21567538771374423
sg23
F0.5656128799971876
sg24
F0.007992445485092849
sg25
F0.389538949391114
sg26
F0.5585301249239991
sg27
F0.0
ssS'HAYSLETT RODERICK J'
p288
(dp289
g3
F0.17174662072621255
sg4
F0.0
sg5
F0.0
sg6
I00
sg7
F1.0
sg8
F0.06628787878787878
sg9
F0.0
sg10
F0.9999999999999999
sg11
F0.10309838738901975
sg12
F0.0
sg13
F0.07307049317358597
sg14
F0.0
sg15
F0.03581526861451461
sg16
F0.0
sg17
F0.0
sg18
F0.007058897361148561
sg19
F0.06239737274220033
sg20
F0.060791707830333414
sg21
F0.023483957870959794
sg22
F0.0
sg23
F0.0
sg24
F0.0
sg25
F0.0
sg26
F0.20063348122568175
sg27
F0.0
ssS'FUGH JOHN L'
p290
(dp291
g3
F0.13363771966050086
sg4
F0.007871647536405067
sg5
F0.0
sg6
I00
sg7
F1.0
sg8
F0.12290785764622973
sg9
F0.0
sg10
F0.9999999999999999
sg11
F0.21280397105980606
sg12
F0.0
sg13
F0.04157082040083719
sg14
F0.0
sg15
F0.06772862709145083
sg16
F0.0
sg17
F0.0
sg18
F0.003591482790966042
sg19
F0.0677053499828159
sg20
F0.14397672711291465
sg21
F0.0
sg22
F0.0
sg23
F0.0
sg24
F0.0004885197095749312
sg25
F0.0
sg26
F0.5585301249239991
sg27
F0.005134972288652648
ssS'FALLON JAMES B'
p292
(dp293
g3
F0.11250993904055127
sg4
F0.0
sg5
F0.41931606072660355
sg6
I00
sg7
F1.0
sg8
F0.07954545454545454
sg9
F0.07275324102884227
sg10
F0.9999999999999999
sg11
F0.2902699764450081
sg12
F0.0
sg13
F0.004388409027584286
sg14
F0.03875400601695276
sg15
F0.49333333333333335
sg16
F0.0
sg17
F0.3125
sg18
F0.04749328640854531
sg19
F0.06075533661740558
sg20
F0.11011092925986544
sg21
F0.09430774001953976
sg22
F0.27409296491003887
sg23
F0.5240253491022564
sg24
F0.03549968470871702
sg25
F0.0733839657807698
sg26
F0.9112859854512628
sg27
F0.027374126247103794
ssS'KOENIG MARK E'
p294
(dp295
g3
F0.15352504638218922
sg4
F0.0
sg5
F0.5552340194874171
sg6
I01
sg7
F1.0
sg8
F0.10037878787878789
sg9
F0.05830411973023073
sg10
F0.9999999999999999
sg11
F0.41112520384127554
sg12
F0.0
sg13
F0.0034132070214544447
sg14
F0.014523352879211415
sg15
F0.2459016393442623
sg16
F0.0
sg17
F0.0875
sg18
F0.039096964985476095
sg19
F0.02463054187192118
sg20
F0.10271962214773522
sg21
F0.08456468478482211
sg22
F0.27891452749946455
sg23
F0.25136161575988436
sg24
F0.0153285455099355
sg25
F0.12792724782623915
sg26
F0.9546870366108069
sg27
F0.01955658234169037
ssS'SAVAGE FRANK'
p296
(dp297
g3
F0.13363771966050086
sg4
F0.0
sg5
F0.0
sg6
I00
sg7
F0.9653907988446478
sg8
F0.12290785764622973
sg9
F0.0
sg10
F0.9999999999999999
sg11
F0.21280397105980606
sg12
F0.0
sg13
F0.04157082040083719
sg14
F0.0
sg15
F0.06772862709145083
sg16
F1.0
sg17
F0.0
sg18
F0.0
sg19
F0.0677053499828159
sg20
F0.14397672711291465
sg21
F0.0
sg22
F0.0
sg23
F0.0
sg24
F3.621096461635453e-05
sg25
F0.0
sg26
F0.5585301249239991
sg27
F0.0
ssS'IZZO LAWRENCE L'
p298
(dp299
g3
F0.029088258680095416
sg4
F0.0
sg5
F0.12280394993945701
sg6
I00
sg7
F1.0
sg8
F0.05303030303030303
sg9
F0.06073345805232368
sg10
F0.9999999999999999
sg11
F0.07881862656278311
sg12
F0.0
sg13
F0.00048760100306492065
sg14
F0.149977764862382
sg15
F0.2631578947368421
sg16
F0.0
sg17
F0.0
sg18
F0.1185088730667461
sg19
F0.008210180623973728
sg20
F0.2597374742621826
sg21
F0.24758730264968232
sg22
F0.07673645544059075
sg23
F0.0
sg24
F0.01911548818951386
sg25
F0.015827683956158294
sg26
F0.8777972051275171
sg27
F0.0630356292744369
ssS'TILNEY ELIZABETH A'
p300
(dp301
g3
F0.026702888947786906
sg4
F0.0
sg5
F0.0
sg6
I00
sg7
F0.8359199015176981
sg8
F0.01893939393939394
sg9
F0.05344544308604483
sg10
F0.9999999999999999
sg11
F0.06830947635441204
sg12
F0.0
sg13
F0.00048760100306492065
sg14
F0.014677507490784749
sg15
F0.5789473684210527
sg16
F0.0
sg17
F0.0375
sg18
F0.023784160961829465
sg19
F0.0180623973727422
sg20
F0.10002312673450509
sg21
F0.039073564321276406
sg22
F0.22257477561466374
sg23
F0.2410612154613883
sg24
F0.0038566415442719162
sg25
F0.22844046391573314
sg26
F0.8196600864309762
sg27
F0.017213327998196363
ssS'MARTIN AMANDA K'
p302
(dp303
g3
F0.09707129605088788
sg4
F0.013292381036846174
sg5
F0.03589304214405302
sg6
I00
sg7
F1.0
sg8
F0.015151515151515152
sg9
F1.0
sg10
F0.9999999999999999
sg11
F0.08606631636165972
sg12
F0.0
sg13
F0.01518528838116467
sg14
F0.2720586609939314
sg15
F0.0
sg16
F0.0
sg17
F0.0
sg18
F0.04215643884743983
sg19
F0.0
sg20
F0.024184303967344202
sg21
F0.0
sg22
F0.3144967235331489
sg23
F0.0
sg24
F0.08118030904136704
sg25
F0.048289472720670856
sg26
F0.3001995057052162
sg27
F0.06027375261671699
ssS'BUY RICHARD B'
p304
(dp305
g3
F0.22965809700503576
sg4
F0.10107126353082858
sg5
F0.0
sg6
I00
sg7
F0.80171647757981
sg8
F0.29545454545454547
sg9
F0.14962042074584964
sg10
F0.9999999999999999
sg11
F0.4223591230295343
sg12
F0.0
sg13
F0.07251323488436891
sg14
F0.038666262408987725
sg15
F0.06742640075973409
sg16
F0.0
sg17
F0.11249999999999999
sg18
F0.070137742399839
sg19
F0.11658456486042693
sg20
F0.20373714375441626
sg21
F0.061080862399667674
sg22
F0.29745207683544234
sg23
F0.1954327145419418
sg24
F0.02274726447164683
sg25
F0.08250167433347712
sg26
F0.6551317129576617
sg27
F0.07403006208385232
ssS'GRAMM WENDY L'
p306
(dp307
g3
F0.13363771966050086
sg4
F0.0
sg5
F0.0
sg6
I00
sg7
F1.0
sg8
F0.12290785764622973
sg9
F0.0
sg10
F0.9999999999999999
sg11
F0.21280397105980606
sg12
F0.0
sg13
F0.04157082040083719
sg14
F0.0
sg15
F0.06772862709145083
sg16
F0.9540764911943951
sg17
F0.0
sg18
F0.0
sg19
F0.0677053499828159
sg20
F0.14397672711291465
sg21
F0.0
sg22
F0.0
sg23
F0.0
sg24
F0.0011519142376037773
sg25
F0.0
sg26
F0.5585301249239991
sg27
F0.0
ssS'CAUSEY RICHARD A'
p308
(dp309
g3
F0.12158759607739197
sg4
F0.0
sg5
F0.13408636886209746
sg6
I01
sg7
F0.9329411771420157
sg8
F0.10984848484848485
sg9
F0.06802147301860252
sg10
F0.9999999999999999
sg11
F0.2868273237905417
sg12
F0.0
sg13
F0.002577319587628866
sg14
F0.029720372029036667
sg15
F0.24489795918367346
sg16
F0.0
sg17
F0.125
sg18
F0.05094805591634369
sg19
F0.019704433497536946
sg20
F0.14104741127254736
sg21
F0.1694970103024761
sg22
F0.3736207073424893
sg23
F0.28815927736590846
sg24
F0.01804520795054119
sg25
F0.1375164164904195
sg26
F0.8337272818292846
sg27
F0.0
ssS'TAYLOR MITCHELL S'
p310
(dp311
g3
F0.03153988868274582
sg4
F0.03538966141226297
sg5
F0.0
sg6
I00
sg7
F1.0
sg8
F0.0
sg9
F0.0
sg10
F0.9999999999999999
sg11
F0.05399528900163073
sg12
F0.0
sg13
F0.0011841738645862357
sg14
F0.0
sg15
F0.0
sg16
F0.0
sg17
F0.075
sg18
F0.07625823766763311
sg19
F0.0
sg20
F0.0
sg21
F0.038193313043882356
sg22
F0.23866104900932097
sg23
F0.15620932554950934
sg24
F0.01055103499482661
sg25
F0.07936485991880889
sg26
F0.554021541823503
sg27
F0.09261716650192335
ssS'DONAHUE JR JEFFREY M'
p312
(dp313
g3
F0.05353829843625762
sg4
F0.0
sg5
F0.4208198004047858
sg6
I00
sg7
F0.9143929920961903
sg8
F0.3560606060606061
sg9
F0.0
sg10
F0.9999999999999999
sg11
F0.1395180286283747
sg12
F0.0
sg13
F0.0006965728615213152
sg14
F8.600611077760817e-05
sg15
F0.5
sg16
F0.0
sg17
F0.09999999999999999
sg18
F0.022011530912249826
sg19
F0.0180623973727422
sg20
F1.0
sg21
F0.021343620860857837
sg22
F0.25070775643459936
sg23
F0.5149329891659988
sg24
F0.008456563832644972
sg25
F0.20611969975835243
sg26
F0.8894348991490711
sg27
F0.022298574512268174
ssS'GLISAN JR BEN F'
p314
(dp315
g3
F0.05406838059899284
sg4
F0.0
sg5
F0.550692201098954
sg6
I01
sg7
F1.0
sg8
F0.09848484848484848
sg9
F0.01380311165200059
sg10
F0.9999999999999999
sg11
F0.15799963761551006
sg12
F0.0
sg13
F0.00027862914460852607
sg14
F0.01933525481216738
sg15
F0.375
sg16
F0.0
sg17
F0.075
sg18
F0.015853080094883988
sg19
F0.009852216748768473
sg20
F0.2740610757719773
sg21
F0.026678374446726775
sg22
F0.24744478779905296
sg23
F0.3684827959964709
sg24
F0.01228550157492107
sg25
F0.19410435423949549
sg26
F1.0
sg27
F0.011200759837784508
ss.